
fir_accelerated.elf:     file format elf32-littleriscv


Disassembly of section .memory:

00000000 <_start>:
       0:	00010137          	lui	sp,0x10
       4:	2c81f0ef          	jal	ra,1f2cc <main>
       8:	10000537          	lui	a0,0x10000
       c:	00450513          	addi	a0,a0,4 # 10000004 <end+0xffcde58>
      10:	0ad00593          	li	a1,173
      14:	00b52023          	sw	a1,0(a0)
      18:	00100073          	ebreak
	...

00010000 <time>:
   10000:	c0002573          	rdcycle	a0
   10004:	00008067          	ret

00010008 <insn>:
   10008:	c0202573          	rdinstret	a0
   1000c:	00008067          	ret

00010010 <malloc>:
   10010:	000106b7          	lui	a3,0x10
   10014:	7906a703          	lw	a4,1936(a3) # 10790 <heap_memory_used>
   10018:	00a707b3          	add	a5,a4,a0
   1001c:	00010537          	lui	a0,0x10
   10020:	78f6a823          	sw	a5,1936(a3)
   10024:	39050513          	addi	a0,a0,912 # 10390 <heap_memory>
   10028:	40000693          	li	a3,1024
   1002c:	00e50533          	add	a0,a0,a4
   10030:	00f6d463          	bge	a3,a5,10038 <malloc+0x28>
   10034:	00100073          	ebreak
   10038:	00008067          	ret

0001003c <memcpy>:
   1003c:	fff60293          	addi	t0,a2,-1
   10040:	0a060463          	beqz	a2,100e8 <memcpy+0xac>
   10044:	00600793          	li	a5,6
   10048:	00158713          	addi	a4,a1,1
   1004c:	0857f063          	bgeu	a5,t0,100cc <memcpy+0x90>
   10050:	00b567b3          	or	a5,a0,a1
   10054:	0037f793          	andi	a5,a5,3
   10058:	00158713          	addi	a4,a1,1
   1005c:	06079863          	bnez	a5,100cc <memcpy+0x90>
   10060:	40e507b3          	sub	a5,a0,a4
   10064:	0037b793          	sltiu	a5,a5,3
   10068:	06079263          	bnez	a5,100cc <memcpy+0x90>
   1006c:	ffc67313          	andi	t1,a2,-4
   10070:	00058793          	mv	a5,a1
   10074:	00050713          	mv	a4,a0
   10078:	00b30333          	add	t1,t1,a1
   1007c:	0007a683          	lw	a3,0(a5)
   10080:	00478793          	addi	a5,a5,4
   10084:	00470713          	addi	a4,a4,4
   10088:	fed72e23          	sw	a3,-4(a4)
   1008c:	fef318e3          	bne	t1,a5,1007c <memcpy+0x40>
   10090:	ffc67793          	andi	a5,a2,-4
   10094:	00f50733          	add	a4,a0,a5
   10098:	00f585b3          	add	a1,a1,a5
   1009c:	40f282b3          	sub	t0,t0,a5
   100a0:	04f60463          	beq	a2,a5,100e8 <memcpy+0xac>
   100a4:	0005c783          	lbu	a5,0(a1)
   100a8:	00f70023          	sb	a5,0(a4)
   100ac:	02028e63          	beqz	t0,100e8 <memcpy+0xac>
   100b0:	0015c683          	lbu	a3,1(a1)
   100b4:	00100793          	li	a5,1
   100b8:	00d700a3          	sb	a3,1(a4)
   100bc:	02f28663          	beq	t0,a5,100e8 <memcpy+0xac>
   100c0:	0025c783          	lbu	a5,2(a1)
   100c4:	00f70123          	sb	a5,2(a4)
   100c8:	00008067          	ret
   100cc:	00c50633          	add	a2,a0,a2
   100d0:	00050793          	mv	a5,a0
   100d4:	fff74683          	lbu	a3,-1(a4)
   100d8:	00178793          	addi	a5,a5,1
   100dc:	00170713          	addi	a4,a4,1
   100e0:	fed78fa3          	sb	a3,-1(a5)
   100e4:	fec798e3          	bne	a5,a2,100d4 <memcpy+0x98>
   100e8:	00008067          	ret

000100ec <strcpy>:
   100ec:	00050793          	mv	a5,a0
   100f0:	0180006f          	j	10108 <strcpy+0x1c>
   100f4:	0005c703          	lbu	a4,0(a1)
   100f8:	00178793          	addi	a5,a5,1
   100fc:	00158593          	addi	a1,a1,1
   10100:	fee78fa3          	sb	a4,-1(a5)
   10104:	08070463          	beqz	a4,1018c <strcpy+0xa0>
   10108:	00b7e733          	or	a4,a5,a1
   1010c:	00377713          	andi	a4,a4,3
   10110:	fe0712e3          	bnez	a4,100f4 <strcpy+0x8>
   10114:	0005a683          	lw	a3,0(a1)
   10118:	feff02b7          	lui	t0,0xfeff0
   1011c:	eff28293          	addi	t0,t0,-257 # fefefeff <end+0xfefbdd53>
   10120:	00568733          	add	a4,a3,t0
   10124:	fff6c613          	not	a2,a3
   10128:	80808337          	lui	t1,0x80808
   1012c:	00c77733          	and	a4,a4,a2
   10130:	08030313          	addi	t1,t1,128 # 80808080 <end+0x807d5ed4>
   10134:	00677733          	and	a4,a4,t1
   10138:	02071463          	bnez	a4,10160 <strcpy+0x74>
   1013c:	00d7a023          	sw	a3,0(a5)
   10140:	0045a683          	lw	a3,4(a1)
   10144:	00478793          	addi	a5,a5,4
   10148:	00458593          	addi	a1,a1,4
   1014c:	00568733          	add	a4,a3,t0
   10150:	fff6c613          	not	a2,a3
   10154:	00c77733          	and	a4,a4,a2
   10158:	00677733          	and	a4,a4,t1
   1015c:	fe0700e3          	beqz	a4,1013c <strcpy+0x50>
   10160:	00d78023          	sb	a3,0(a5)
   10164:	0ff6f713          	zext.b	a4,a3
   10168:	02070263          	beqz	a4,1018c <strcpy+0xa0>
   1016c:	0086d713          	srli	a4,a3,0x8
   10170:	00e780a3          	sb	a4,1(a5)
   10174:	0ff77713          	zext.b	a4,a4
   10178:	00070a63          	beqz	a4,1018c <strcpy+0xa0>
   1017c:	0106d713          	srli	a4,a3,0x10
   10180:	00e78123          	sb	a4,2(a5)
   10184:	0ff77713          	zext.b	a4,a4
   10188:	00071463          	bnez	a4,10190 <strcpy+0xa4>
   1018c:	00008067          	ret
   10190:	0186d693          	srli	a3,a3,0x18
   10194:	00d781a3          	sb	a3,3(a5)
   10198:	00008067          	ret

0001019c <strcmp>:
   1019c:	01c0006f          	j	101b8 <strcmp+0x1c>
   101a0:	00054783          	lbu	a5,0(a0)
   101a4:	0005c703          	lbu	a4,0(a1)
   101a8:	00150513          	addi	a0,a0,1
   101ac:	00158593          	addi	a1,a1,1
   101b0:	06e79263          	bne	a5,a4,10214 <strcmp+0x78>
   101b4:	04078c63          	beqz	a5,1020c <strcmp+0x70>
   101b8:	00b567b3          	or	a5,a0,a1
   101bc:	0037f793          	andi	a5,a5,3
   101c0:	fe0790e3          	bnez	a5,101a0 <strcmp+0x4>
   101c4:	00052783          	lw	a5,0(a0)
   101c8:	0005a703          	lw	a4,0(a1)
   101cc:	04e79c63          	bne	a5,a4,10224 <strcmp+0x88>
   101d0:	feff0637          	lui	a2,0xfeff0
   101d4:	808086b7          	lui	a3,0x80808
   101d8:	eff60613          	addi	a2,a2,-257 # fefefeff <end+0xfefbdd53>
   101dc:	08068693          	addi	a3,a3,128 # 80808080 <end+0x807d5ed4>
   101e0:	0100006f          	j	101f0 <strcmp+0x54>
   101e4:	00052783          	lw	a5,0(a0)
   101e8:	0005a703          	lw	a4,0(a1)
   101ec:	02e79c63          	bne	a5,a4,10224 <strcmp+0x88>
   101f0:	00c78733          	add	a4,a5,a2
   101f4:	fff7c793          	not	a5,a5
   101f8:	00f777b3          	and	a5,a4,a5
   101fc:	00d7f7b3          	and	a5,a5,a3
   10200:	00450513          	addi	a0,a0,4
   10204:	00458593          	addi	a1,a1,4
   10208:	fc078ee3          	beqz	a5,101e4 <strcmp+0x48>
   1020c:	00000513          	li	a0,0
   10210:	00008067          	ret
   10214:	00e7b533          	sltu	a0,a5,a4
   10218:	40a00533          	neg	a0,a0
   1021c:	00156513          	ori	a0,a0,1
   10220:	00008067          	ret
   10224:	0ff7f693          	zext.b	a3,a5
   10228:	0ff77613          	zext.b	a2,a4
   1022c:	04c69a63          	bne	a3,a2,10280 <strcmp+0xe4>
   10230:	00000513          	li	a0,0
   10234:	fc068ee3          	beqz	a3,10210 <strcmp+0x74>
   10238:	0087d693          	srli	a3,a5,0x8
   1023c:	00875613          	srli	a2,a4,0x8
   10240:	0ff6f693          	zext.b	a3,a3
   10244:	0ff67613          	zext.b	a2,a2
   10248:	02c69c63          	bne	a3,a2,10280 <strcmp+0xe4>
   1024c:	fc0682e3          	beqz	a3,10210 <strcmp+0x74>
   10250:	0107d693          	srli	a3,a5,0x10
   10254:	01075613          	srli	a2,a4,0x10
   10258:	0ff6f693          	zext.b	a3,a3
   1025c:	0ff67613          	zext.b	a2,a2
   10260:	02c69063          	bne	a3,a2,10280 <strcmp+0xe4>
   10264:	fa0686e3          	beqz	a3,10210 <strcmp+0x74>
   10268:	0187d793          	srli	a5,a5,0x18
   1026c:	01875713          	srli	a4,a4,0x18
   10270:	fae780e3          	beq	a5,a4,10210 <strcmp+0x74>
   10274:	00100513          	li	a0,1
   10278:	f8e7fce3          	bgeu	a5,a4,10210 <strcmp+0x74>
   1027c:	00c0006f          	j	10288 <strcmp+0xec>
   10280:	00100513          	li	a0,1
   10284:	f8c6f6e3          	bgeu	a3,a2,10210 <strcmp+0x74>
   10288:	fff00513          	li	a0,-1
   1028c:	00008067          	ret

00010290 <memset>:
   10290:	fff60313          	addi	t1,a2,-1
   10294:	0c060e63          	beqz	a2,10370 <memset+0xe0>
   10298:	40a006b3          	neg	a3,a0
   1029c:	00500293          	li	t0,5
   102a0:	0ff5f713          	zext.b	a4,a1
   102a4:	0036f793          	andi	a5,a3,3
   102a8:	00050593          	mv	a1,a0
   102ac:	0862f463          	bgeu	t0,t1,10334 <memset+0xa4>
   102b0:	02078e63          	beqz	a5,102ec <memset+0x5c>
   102b4:	00e50023          	sb	a4,0(a0)
   102b8:	0026f693          	andi	a3,a3,2
   102bc:	00150593          	addi	a1,a0,1
   102c0:	ffe60313          	addi	t1,a2,-2
   102c4:	02068463          	beqz	a3,102ec <memset+0x5c>
   102c8:	fff50693          	addi	a3,a0,-1
   102cc:	00e500a3          	sb	a4,1(a0)
   102d0:	0036f693          	andi	a3,a3,3
   102d4:	00250593          	addi	a1,a0,2
   102d8:	ffd60313          	addi	t1,a2,-3
   102dc:	00069863          	bnez	a3,102ec <memset+0x5c>
   102e0:	00350593          	addi	a1,a0,3
   102e4:	00e50123          	sb	a4,2(a0)
   102e8:	ffc60313          	addi	t1,a2,-4
   102ec:	00871693          	slli	a3,a4,0x8
   102f0:	40f60633          	sub	a2,a2,a5
   102f4:	01071293          	slli	t0,a4,0x10
   102f8:	00d766b3          	or	a3,a4,a3
   102fc:	0056e6b3          	or	a3,a3,t0
   10300:	01871393          	slli	t2,a4,0x18
   10304:	00f507b3          	add	a5,a0,a5
   10308:	ffc67293          	andi	t0,a2,-4
   1030c:	0076e6b3          	or	a3,a3,t2
   10310:	00f282b3          	add	t0,t0,a5
   10314:	00d7a023          	sw	a3,0(a5)
   10318:	00478793          	addi	a5,a5,4
   1031c:	fe579ce3          	bne	a5,t0,10314 <memset+0x84>
   10320:	00367793          	andi	a5,a2,3
   10324:	04078663          	beqz	a5,10370 <memset+0xe0>
   10328:	ffc67613          	andi	a2,a2,-4
   1032c:	00c585b3          	add	a1,a1,a2
   10330:	40c30333          	sub	t1,t1,a2
   10334:	00e58023          	sb	a4,0(a1)
   10338:	02030c63          	beqz	t1,10370 <memset+0xe0>
   1033c:	00e580a3          	sb	a4,1(a1)
   10340:	00100793          	li	a5,1
   10344:	02f30663          	beq	t1,a5,10370 <memset+0xe0>
   10348:	00e58123          	sb	a4,2(a1)
   1034c:	00200793          	li	a5,2
   10350:	02f30063          	beq	t1,a5,10370 <memset+0xe0>
   10354:	00e581a3          	sb	a4,3(a1)
   10358:	00300793          	li	a5,3
   1035c:	00f30a63          	beq	t1,a5,10370 <memset+0xe0>
   10360:	00e58223          	sb	a4,4(a1)
   10364:	00400793          	li	a5,4
   10368:	00f30463          	beq	t1,a5,10370 <memset+0xe0>
   1036c:	00e582a3          	sb	a4,5(a1)
   10370:	00008067          	ret
   10374:	1941                	addi	s2,s2,-16
   10376:	0000                	unimp
   10378:	7200                	flw	fs0,32(a2)
   1037a:	7369                	lui	t1,0xffffa
   1037c:	01007663          	bgeu	zero,a6,10388 <memset+0xf8>
   10380:	0000000f          	fence	unknown,unknown
   10384:	7205                	lui	tp,0xfffe1
   10386:	3376                	fld	ft6,376(sp)
   10388:	6532                	flw	fa0,12(sp)
   1038a:	7031                	c.lui	zero,0xfffec
   1038c:	0039                	c.nop	14
	...

00010390 <heap_memory>:
	...

00010790 <heap_memory_used>:
   10790:	0000 0000 4347 3a43 2820 3267 6565 6535     ....GCC: (g2ee5e
   107a0:	3334 3030 3831 2029 3231 322e 302e 4100     430018) 12.2.0.A
   107b0:	001b 0000 6972 6373 0076 1101 0000 0400     ....riscv.......
   107c0:	0504 7672 3233 3165 3970 0000               ..rv32e1p9..

000107cc <H>:
   107cc:	0010 0000 ffd9 ffff fffb ffff 000f 0000     ................
   107dc:	ffff ffff fffc ffff 0001 0000 0000 0000     ................
   107ec:	0022 0000 ffe1 ffff fff0 ffff 000d 0000     "...............
   107fc:	0002 0000 fffc ffff 0000 0000 0000 0000     ................
   1080c:	002e 0000 fff0 ffff ffe8 ffff 0009 0000     ................
   1081c:	0005 0000 fffd ffff 0000 0000 0000 0000     ................
   1082c:	0032 0000 0002 0000 ffe4 ffff 0003 0000     2...............
   1083c:	0008 0000 fffe ffff ffff ffff 0000 0000     ................
   1084c:	002c 0000 0015 0000 ffe5 ffff fffc ffff     ,...............
   1085c:	0009 0000 0000 0000 fffe ffff 0000 0000     ................
   1086c:	001d 0000 0025 0000 ffec ffff fff5 ffff     ....%...........
   1087c:	0008 0000 0001 0000 fffe ffff 0000 0000     ................
   1088c:	0007 0000 002f 0000 fff7 ffff fff0 ffff     ..../...........
   1089c:	0005 0000 0003 0000 fffe ffff 0000 0000     ................
   108ac:	fff0 ffff 0030 0000 0004 0000 ffee ffff     ....0...........
   108bc:	0002 0000 0004 0000 ffff ffff 0000 0000     ................
   108cc:	ffda ffff 0027 0000 0011 0000 ffef ffff     ....'...........
   108dc:	fffe ffff 0005 0000 0000 0000 0000 0000     ................
   108ec:	ffca ffff 0017 0000 001c 0000 fff4 ffff     ................
   108fc:	fffa ffff 0004 0000 0000 0000 ffff ffff     ................
   1090c:	ffc3 ffff 0001 0000 0022 0000 fffb ffff     ........".......
   1091c:	fff7 ffff 0003 0000 0001 0000 0000 0000     ................
   1092c:	ffc9 ffff ffea ffff 0022 0000 0003 0000     ........".......
   1093c:	fff5 ffff 0001 0000 0002 0000 0000 0000     ................
   1094c:	ffd9 ffff ffd6 ffff 001a 0000 000c 0000     ................
   1095c:	fff6 ffff ffff ffff 0002 0000 0000 0000     ................
   1096c:	fff2 ffff ffc9 ffff 000e 0000 0012 0000     ................
   1097c:	fff9 ffff fffd ffff 0002 0000 0000 0000     ................
   1098c:	000f 0000 ffc6 ffff fffe ffff 0016 0000     ................
   1099c:	fffd ffff fffb ffff 0001 0000 0000 0000     ................
   109ac:	002a 0000 ffce ffff ffed ffff 0015 0000     *...............
   109bc:	0002 0000 fffa ffff 0000 0000 0001 0000     ................
   109cc:	003f 0000 ffe1 ffff ffdf ffff 0010 0000     ?...............
   109dc:	0007 0000 fffa ffff 0000 0000 0001 0000     ................
   109ec:	0049 0000 fffb ffff ffd7 ffff 0008 0000     I...............
   109fc:	000b 0000 fffc ffff ffff ffff 0001 0000     ................
   10a0c:	0045 0000 0016 0000 ffd6 ffff fffe ffff     E...............
   10a1c:	000d 0000 fffe ffff fffe ffff 0000 0000     ................
   10a2c:	0033 0000 0030 0000 ffde ffff fff3 ffff     3...0...........
   10a3c:	000d 0000 0000 0000 fffd ffff 0000 0000     ................
   10a4c:	0016 0000 0041 0000 ffed ffff ffeb ffff     ....A...........
   10a5c:	000a 0000 0004 0000 fffd ffff 0000 0000     ................
   10a6c:	fff4 ffff 0047 0000 0000 0000 ffe6 ffff     ....G...........
   10a7c:	0004 0000 0006 0000 fffe ffff 0000 0000     ................
   10a8c:	ffd2 ffff 003f 0000 0013 0000 ffe6 ffff     ....?...........
   10a9c:	ffff ffff 0007 0000 ffff ffff ffff ffff     ................
   10aac:	ffb7 ffff 002b 0000 0025 0000 ffeb ffff     ....+...%.......
   10abc:	fff9 ffff 0007 0000 0000 0000 ffff ffff     ................
   10acc:	ffa8 ffff 000c 0000 0031 0000 fff5 ffff     ........1.......
   10adc:	fff3 ffff 0006 0000 0002 0000 ffff ffff     ................
   10aec:	ffaa ffff ffeb ffff 0033 0000 0000 0000     ........3.......
   10afc:	fff0 ffff 0003 0000 0003 0000 ffff ffff     ................
   10b0c:	ffbe ffff ffcb ffff 002b 0000 000d 0000     ........+.......
   10b1c:	fff0 ffff 0000 0000 0004 0000 0000 0000     ................
   10b2c:	ffdf ffff ffb3 ffff 001b 0000 0018 0000     ................
   10b3c:	fff4 ffff fffc ffff 0004 0000 0000 0000     ................
   10b4c:	0007 0000 ffaa ffff 0004 0000 001f 0000     ................
   10b5c:	fff9 ffff fff9 ffff 0003 0000 0000 0000     ................
   10b6c:	0032 0000 ffb1 ffff ffec ffff 0020 0000     2........... ...
   10b7c:	0000 0000 fff7 ffff 0001 0000 0001 0000     ................
   10b8c:	0055 0000 ffc7 ffff ffd6 ffff 001b 0000     U...............
   10b9c:	0008 0000 fff7 ffff 0000 0000 0001 0000     ................
   10bac:	0069 0000 ffea ffff ffc7 ffff 0010 0000     i...............
   10bbc:	000e 0000 fff9 ffff fffe ffff 0001 0000     ................
   10bcc:	006a 0000 0013 0000 ffc2 ffff 0001 0000     j...............
   10bdc:	0013 0000 fffc ffff fffd ffff 0001 0000     ................
   10bec:	0056 0000 003b 0000 ffc9 ffff fff2 ffff     V...;...........
   10bfc:	0013 0000 0000 0000 fffc ffff 0000 0000     ................
   10c0c:	0030 0000 0059 0000 ffdb ffff ffe4 ffff     0...Y...........
   10c1c:	0010 0000 0004 0000 fffb ffff 0000 0000     ................
   10c2c:	0000 0000 0068 0000 fff6 ffff ffdb ffff     ....h...........
   10c3c:	000a 0000 0008 0000 fffc ffff 0000 0000     ................
   10c4c:	ffcc ffff 0063 0000 0013 0000 ffd9 ffff     ....c...........
   10c5c:	0001 0000 000a 0000 fffe ffff ffff ffff     ................
   10c6c:	ff9f ffff 004a 0000 002f 0000 ffde ffff     ....J.../.......
   10c7c:	fff8 ffff 000b 0000 0000 0000 fffe ffff     ................
   10c8c:	ff84 ffff 0022 0000 0043 0000 ffea ffff     ...."...C.......
   10c9c:	fff0 ffff 0009 0000 0002 0000 fffe ffff     ................
   10cac:	ff7e ffff fff1 ffff 004b 0000 fffb ffff     ~.......K.......
   10cbc:	ffea ffff 0006 0000 0004 0000 ffff ffff     ................
   10ccc:	ff93 ffff ffc0 ffff 0045 0000 000e 0000     ........E.......
   10cdc:	ffe8 ffff 0001 0000 0005 0000 ffff ffff     ................
   10cec:	ffbd ffff ff99 ffff 0031 0000 001f 0000     ........1.......
   10cfc:	ffeb ffff fffc ffff 0006 0000 0000 0000     ................
   10d0c:	fff7 ffff ff83 ffff 0012 0000 002c 0000     ............,...
   10d1c:	fff3 ffff fff7 ffff 0005 0000 0000 0000     ................
   10d2c:	0035 0000 ff85 ffff ffef ffff 0030 0000     5...........0...
   10d3c:	fffd ffff fff4 ffff 0003 0000 0001 0000     ................
   10d4c:	006d 0000 ff9f ffff ffcc ffff 002b 0000     m...........+...
   10d5c:	0008 0000 fff2 ffff 0000 0000 0002 0000     ................
   10d6c:	0093 0000 ffce ffff ffb2 ffff 001e 0000     ................
   10d7c:	0012 0000 fff4 ffff fffe ffff 0002 0000     ................
   10d8c:	009e 0000 0008 0000 ffa5 ffff 000a 0000     ................
   10d9c:	001a 0000 fff8 ffff fffc ffff 0002 0000     ................
   10dac:	008b 0000 0044 0000 ffaa ffff fff3 ffff     ....D...........
   10dbc:	001d 0000 fffe ffff fffa ffff 0001 0000     ................
   10dcc:	005b 0000 0076 0000 ffc0 ffff ffdd ffff     [...v...........
   10ddc:	001a 0000 0004 0000 fff9 ffff 0000 0000     ................
   10dec:	0017 0000 0094 0000 ffe3 ffff ffcd ffff     ................
   10dfc:	0012 0000 000a 0000 fffa ffff 0000 0000     ................
   10e0c:	ffcc ffff 0097 0000 000d 0000 ffc6 ffff     ................
   10e1c:	0006 0000 000f 0000 fffc ffff fffe ffff     ................
   10e2c:	ff86 ffff 007c 0000 0038 0000 ffca ffff     ....|...8.......
   10e3c:	fff9 ffff 0010 0000 ffff ffff fffe ffff     ................
   10e4c:	ff53 ffff 0048 0000 005b 0000 ffd9 ffff     S...H...[.......
   10e5c:	ffeb ffff 000f 0000 0002 0000 fffd ffff     ................
   10e6c:	ff40 ffff 0002 0000 006d 0000 fff0 ffff     @.......m.......
   10e7c:	ffe2 ffff 000b 0000 0005 0000 fffe ffff     ................
   10e8c:	ff52 ffff ffb9 ffff 006b 0000 000b 0000     R.......k.......
   10e9c:	ffdd ffff 0004 0000 0008 0000 ffff ffff     ................
   10eac:	ff86 ffff ff79 ffff 0054 0000 0026 0000     ....y...T...&...
   10ebc:	ffdf ffff fffd ffff 0009 0000 0000 0000     ................
   10ecc:	ffd5 ffff ff50 ffff 002b 0000 003b 0000     ....P...+...;...
   10edc:	ffe8 ffff fff5 ffff 0008 0000 0000 0000     ................
   10eec:	0030 0000 ff47 ffff fff8 ffff 0046 0000     0...G.......F...
   10efc:	fff6 ffff ffef ffff 0006 0000 0002 0000     ................
   10f0c:	0088 0000 ff62 ffff ffc4 ffff 0044 0000     ....b.......D...
   10f1c:	0006 0000 ffec ffff 0002 0000 0003 0000     ................
   10f2c:	00c9 0000 ff9d ffff ff98 ffff 0034 0000     ............4...
   10f3c:	0017 0000 ffed ffff ffff ffff 0003 0000     ................
   10f4c:	00e7 0000 ffef ffff ff7e ffff 0019 0000     ........~.......
   10f5c:	0023 0000 fff2 ffff fffa ffff 0003 0000     #...............
   10f6c:	00da 0000 0048 0000 ff7c ffff fff8 ffff     ....H...|.......
   10f7c:	002a 0000 fffa ffff fff7 ffff 0002 0000     *...............
   10f8c:	00a1 0000 0098 0000 ff94 ffff ffd7 ffff     ................
   10f9c:	0029 0000 0003 0000 fff5 ffff 0001 0000     )...............
   10fac:	0045 0000 00cf 0000 ffc3 ffff ffbc ffff     E...............
   10fbc:	001f 0000 000c 0000 fff6 ffff 0000 0000     ................
   10fcc:	ffd8 ffff 00e1 0000 0000 0000 ffac ffff     ................
   10fdc:	000f 0000 0014 0000 fff8 ffff fffe ffff     ................
   10fec:	ff6c ffff 00c8 0000 003f 0000 ffad ffff     l.......?.......
   10ffc:	fffc ffff 0018 0000 fffd ffff fffd ffff     ................
   1100c:	ff17 ffff 0086 0000 0077 0000 ffbd ffff     ........w.......
   1101c:	ffe8 ffff 0018 0000 0001 0000 fffc ffff     ................
   1102c:	feea ffff 0026 0000 009a 0000 ffdc ffff     ....&...........
   1103c:	ffd7 ffff 0012 0000 0006 0000 fffc ffff     ................
   1104c:	fef2 ffff ffbb ffff 00a1 0000 0002 0000     ................
   1105c:	ffce ffff 0009 0000 000a 0000 fffd ffff     ................
   1106c:	ff2f ffff ff56 ffff 0089 0000 002b 0000     /...V.......+...
   1107c:	ffce ffff ffff ffff 000d 0000 ffff ffff     ................
   1108c:	ff98 ffff ff0d ffff 0055 0000 004e 0000     ........U...N...
   1109c:	ffd8 ffff fff3 ffff 000d 0000 0000 0000     ................
   110ac:	001a 0000 feef ffff 000d 0000 0064 0000     ............d...
   110bc:	ffea ffff ffe9 ffff 000a 0000 0002 0000     ................
   110cc:	009f 0000 ff05 ffff ffc0 ffff 0067 0000     ............g...
   110dc:	0001 0000 ffe3 ffff 0005 0000 0004 0000     ................
   110ec:	010d 0000 ff4e ffff ff7a ffff 0056 0000     ....N...z...V...
   110fc:	001a 0000 ffe3 ffff 0000 0000 0005 0000     ................
   1110c:	014c 0000 ffbd ffff ff4a ffff 0033 0000     L.......J...3...
   1111c:	002f 0000 ffe8 ffff fffa ffff 0005 0000     /...............
   1112c:	014d 0000 003e 0000 ff3b ffff 0004 0000     M...>...;.......
   1113c:	003c 0000 fff3 ffff fff4 ffff 0004 0000     <...............
   1114c:	010e 0000 00bc 0000 ff52 ffff ffd3 ffff     ........R.......
   1115c:	003e 0000 0000 0000 fff1 ffff 0002 0000     >...............
   1116c:	0096 0000 011b 0000 ff8c ffff ffa7 ffff     ................
   1117c:	0034 0000 000e 0000 fff0 ffff 0000 0000     4...............
   1118c:	fffc ffff 0149 0000 ffe0 ffff ff8a ffff     ....I...........
   1119c:	001f 0000 001a 0000 fff3 ffff fffe ffff     ................
   111ac:	ff58 ffff 0138 0000 003e 0000 ff83 ffff     X...8...>.......
   111bc:	0003 0000 0022 0000 fff9 ffff fffb ffff     ...."...........
   111cc:	fecd ffff 00ea 0000 0096 0000 ff93 ffff     ................
   111dc:	ffe6 ffff 0024 0000 0000 0000 fffa ffff     ....$...........
   111ec:	fe76 ffff 006a 0000 00d5 0000 ffba ffff     v...j...........
   111fc:	ffcb ffff 001e 0000 0007 0000 fffa ffff     ................
   1120c:	fe67 ffff ffcf ffff 00ee 0000 fff1 ffff     g...............
   1121c:	ffb9 ffff 0013 0000 000e 0000 fffb ffff     ................
   1122c:	fea7 ffff ff34 ffff 00da 0000 002d 0000     ....4.......-...
   1123c:	ffb5 ffff 0003 0000 0012 0000 fffd ffff     ................
   1124c:	ff2e ffff feb8 ffff 009a 0000 0064 0000     ............d...
   1125c:	ffbe ffff fff2 ffff 0013 0000 0000 0000     ................
   1126c:	ffe6 ffff fe76 ffff 0039 0000 008b 0000     ....v...9.......
   1127c:	ffd6 ffff ffe2 ffff 0011 0000 0003 0000     ................
   1128c:	00ab 0000 fe7d ffff ffc8 ffff 0098 0000     ....}...........
   1129c:	fff7 ffff ffd8 ffff 000a 0000 0005 0000     ................
   112ac:	015c 0000 fed0 ffff ff5a ffff 0089 0000     \.......Z.......
   112bc:	001a 0000 ffd4 ffff 0002 0000 0007 0000     ................
   112cc:	01d1 0000 ff63 ffff ff07 ffff 005e 0000     ....c.......^...
   112dc:	003c 0000 ffda ffff fff9 ffff 0008 0000     <...............
   112ec:	01f3 0000 001b 0000 fee1 ffff 001e 0000     ................
   112fc:	0053 0000 ffe7 ffff fff1 ffff 0007 0000     S...............
   1130c:	01b5 0000 00da 0000 fef0 ffff ffd6 ffff     ................
   1131c:	005c 0000 fff9 ffff ffeb ffff 0004 0000     \...............
   1132c:	011e 0000 0178 0000 ff35 ffff ff91 ffff     ....x...5.......
   1133c:	0053 0000 000d 0000 ffe9 ffff 0000 0000     S...............
   1134c:	0047 0000 01d6 0000 ffa6 ffff ff5e ffff     G...........^...
   1135c:	0039 0000 0021 0000 ffeb ffff fffd ffff     9...!...........
   1136c:	ff57 ffff 01dd 0000 002d 0000 ff48 ffff     W.......-...H...
   1137c:	0012 0000 002f 0000 fff2 ffff fffa ffff     ..../...........
   1138c:	fe7b ffff 0187 0000 00b4 0000 ff54 ffff     {...........T...
   1139c:	ffe7 ffff 0035 0000 fffc ffff fff7 ffff     ....5...........
   113ac:	fdde ffff 00e0 0000 0120 0000 ff83 ffff     ........ .......
   113bc:	ffbe ffff 0030 0000 0006 0000 fff6 ffff     ....0...........
   113cc:	fda3 ffff 0005 0000 0159 0000 ffcd ffff     ........Y.......
   113dc:	ff9f ffff 0022 0000 0011 0000 fff8 ffff     ...."...........
   113ec:	fddb ffff ff1d ffff 0151 0000 0024 0000     ........Q...$...
   113fc:	ff91 ffff 000c 0000 0019 0000 fffa ffff     ................
   1140c:	fe81 ffff fe54 ffff 0108 0000 007a 0000     ....T.......z...
   1141c:	ff99 ffff fff4 ffff 001c 0000 ffff ffff     ................
   1142c:	ff7b ffff fdd3 ffff 0087 0000 00bc 0000     {...............
   1143c:	ffb5 ffff ffdb ffff 001a 0000 0002 0000     ................
   1144c:	009c 0000 fdb9 ffff ffe5 ffff 00dd 0000     ................
   1145c:	ffe1 ffff ffc9 ffff 0013 0000 0007 0000     ................
   1146c:	01af 0000 fe0e ffff ff3f ffff 00d5 0000     ........?.......
   1147c:	0015 0000 ffc0 ffff 0007 0000 000a 0000     ................
   1148c:	027d 0000 fec9 ffff feb6 ffff 00a3 0000     }...............
   1149c:	0049 0000 ffc4 ffff fffb ffff 000c 0000     I...............
   114ac:	02da 0000 ffcc ffff fe65 ffff 004e 0000     ........e...N...
   114bc:	0071 0000 ffd3 ffff ffed ffff 000b 0000     q...............
   114cc:	02ae 0000 00e5 0000 fe60 ffff ffe6 ffff     ........`.......
   114dc:	0085 0000 ffec ffff ffe3 ffff 0008 0000     ................
   114ec:	01f9 0000 01e3 0000 fead ffff ff7c ffff     ............|...
   114fc:	0080 0000 000a 0000 ffde ffff 0003 0000     ................
   1150c:	00d8 0000 0290 0000 ff3f ffff ff27 ffff     ........?...'...
   1151c:	0062 0000 0028 0000 ffdf ffff fffe ffff     b...(...........
   1152c:	ff7e ffff 02c6 0000 0000 0000 fef7 ffff     ~...............
   1153c:	002f 0000 0040 0000 ffe7 ffff fff8 ffff     /...@...........
   1154c:	fe2a ffff 0275 0000 00ca 0000 fef9 ffff     *...u...........
   1155c:	fff1 ffff 004d 0000 fff4 ffff fff4 ffff     ....M...........
   1156c:	fd1e ffff 01a4 0000 0178 0000 ff2e ffff     ........x.......
   1157c:	ffb1 ffff 004b 0000 0004 0000 fff2 ffff     ....K...........
   1158c:	fc94 ffff 0077 0000 01e7 0000 ff8f ffff     ....w...........
   1159c:	ff7e ffff 003a 0000 0014 0000 fff3 ffff     ~...:...........
   115ac:	fcae ffff ff22 ffff 01fd 0000 000a 0000     ...."...........
   115bc:	ff61 ffff 001e 0000 0022 0000 fff6 ffff     a.......".......
   115cc:	fd6e ffff fde5 ffff 01b0 0000 008b 0000     n...............
   115dc:	ff61 ffff fffa ffff 0029 0000 fffc ffff     a.......).......
   115ec:	feba ffff fd01 ffff 010b 0000 00f8 0000     ................
   115fc:	ff81 ffff ffd5 ffff 0029 0000 0001 0000     ........).......
   1160c:	0056 0000 fca5 ffff 0029 0000 013b 0000     V.......)...;...
   1161c:	ffbb ffff ffb6 ffff 0020 0000 0008 0000     ........ .......
   1162c:	01f9 0000 fcec ffff ff33 ffff 0143 0000     ........3...C...
   1163c:	0005 0000 ffa5 ffff 0011 0000 000e 0000     ................
   1164c:	0350 0000 fdd1 ffff fe57 ffff 010d 0000     P.......W.......
   1165c:	0053 0000 ffa4 ffff fffe ffff 0011 0000     S...............
   1166c:	0414 0000 ff2f ffff fdc2 ffff 009f 0000     ..../...........
   1167c:	0095 0000 ffb5 ffff ffea ffff 0011 0000     ................
   1168c:	0417 0000 00c9 0000 fd95 ffff 000c 0000     ................
   1169c:	00bd 0000 ffd6 ffff ffd9 ffff 000d 0000     ................
   116ac:	034e 0000 0252 0000 fdde ffff ff70 ffff     N...R.......p...
   116bc:	00c3 0000 0000 0000 ffcf ffff 0007 0000     ................
   116cc:	01d5 0000 037d 0000 fe96 ffff fee6 ffff     ....}...........
   116dc:	00a2 0000 002d 0000 ffce ffff 0000 0000     ....-...........
   116ec:	ffec ffff 040a 0000 ff9f ffff fe8b ffff     ................
   116fc:	0060 0000 0054 0000 ffd6 ffff fff7 ffff     `...T...........
   1170c:	fdec ffff 03d4 0000 00c8 0000 fe75 ffff     ............u...
   1171c:	0008 0000 006d 0000 ffe8 ffff fff0 ffff     ....m...........
   1172c:	fc38 ffff 02dc 0000 01dc 0000 feaa ffff     8...............
   1173c:	ffaa ffff 0071 0000 ffff ffff ffec ffff     ....q...........
   1174c:	fb2a ffff 0148 0000 02a1 0000 ff26 ffff     *...H.......&...
   1175c:	ff57 ffff 0060 0000 0017 0000 ffeb ffff     W...`...........
   1176c:	fafe ffff ff5f ffff 02ee 0000 ffd2 ffff     ...._...........
   1177c:	ff20 ffff 003b 0000 002c 0000 ffef ffff      ...;...,.......
   1178c:	fbcb ffff fd79 ffff 02ac 0000 0090 0000     ....y...........
   1179c:	ff12 ffff 0008 0000 003a 0000 fff6 ffff     ........:.......
   117ac:	fd75 ffff fbf7 ffff 01e2 0000 013e 0000     u...........>...
   117bc:	ff32 ffff ffd2 ffff 003e 0000 0000 0000     2.......>.......
   117cc:	ffb5 ffff fb2a ffff 00ae 0000 01b7 0000     ....*...........
   117dc:	ff7c ffff ffa1 ffff 0035 0000 0009 0000     |.......5.......
   117ec:	0223 0000 fb44 ffff ff48 ffff 01e0 0000     #...D...H.......
   117fc:	ffe4 ffff ff7f ffff 0022 0000 0012 0000     ........".......
   1180c:	0449 0000 fc4c ffff fdf1 ffff 01ae 0000     I...L...........
   1181c:	0056 0000 ff75 ffff 0006 0000 0018 0000     V...u...........
   1182c:	05b6 0000 fe1c ffff fcef ffff 0126 0000     ............&...
   1183c:	00bf 0000 ff86 ffff ffe9 ffff 001a 0000     ................
   1184c:	0619 0000 0062 0000 fc78 ffff 005c 0000     ....b...x...\...
   1185c:	0108 0000 ffaf ffff ffce ffff 0016 0000     ................
   1186c:	0551 0000 02b7 0000 fcab ffff ff76 ffff     Q...........v...
   1187c:	0122 0000 ffeb ffff ffbb ffff 000e 0000     "...............
   1188c:	0374 0000 04a4 0000 fd88 ffff fe9d ffff     t...............
   1189c:	0104 0000 002d 0000 ffb5 ffff 0002 0000     ....-...........
   118ac:	00cf 0000 05c4 0000 feec ffff fdfe ffff     ................
   118bc:	00b2 0000 006b 0000 ffbd ffff fff7 ffff     ....k...........
   118cc:	fdde ffff 05d4 0000 0099 0000 fdba ffff     ................
   118dc:	0039 0000 0097 0000 ffd2 ffff ffeb ffff     9...............
   118ec:	fb2d ffff 04c0 0000 0241 0000 fde4 ffff     -.......A.......
   118fc:	ffae ffff 00a9 0000 fff2 ffff ffe3 ffff     ................
   1190c:	f948 ffff 02af 0000 0390 0000 fe7b ffff     H...........{...
   1191c:	ff2b ffff 009a 0000 0015 0000 ffe1 ffff     +...............
   1192c:	f898 ffff fffc ffff 043f 0000 ff65 ffff     ........?...e...
   1193c:	feca ffff 006c 0000 0038 0000 ffe4 ffff     ....l...8.......
   1194c:	f953 ffff fd22 ffff 0423 0000 007a 0000     S..."...#...z...
   1195c:	fea1 ffff 0027 0000 0051 0000 ffed ffff     ....'...Q.......
   1196c:	fb66 ffff faaf ffff 0336 0000 0187 0000     f.......6.......
   1197c:	feb9 ffff ffd7 ffff 005b 0000 fffa ffff     ........[.......
   1198c:	fe7d ffff f924 ffff 019c 0000 0257 0000     }...$.......W...
   1199c:	ff13 ffff ff8a ffff 0055 0000 0009 0000     ........U.......
   119ac:	020b 0000 f8da ffff ff9b ffff 02be 0000     ................
   119bc:	ffa0 ffff ff50 ffff 003d 0000 0017 0000     ....P...=.......
   119cc:	0567 0000 f9f2 ffff fd90 ffff 02a1 0000     g...............
   119dc:	0047 0000 ff34 ffff 0018 0000 0022 0000     G...4......."...
   119ec:	07e4 0000 fc49 ffff fbe2 ffff 01ff 0000     ....I...........
   119fc:	00ea 0000 ff3f ffff ffee ffff 0026 0000     ....?.......&...
   11a0c:	08fa 0000 ff7b ffff faea ffff 00f1 0000     ....{...........
   11a1c:	0168 0000 ff71 ffff ffc3 ffff 0023 0000     h...q.......#...
   11a2c:	085d 0000 02f5 0000 fae2 ffff ffa5 ffff     ]...............
   11a3c:	01a8 0000 ffc0 ffff ffa3 ffff 0019 0000     ................
   11a4c:	0615 0000 060e 0000 fbda ffff fe58 ffff     ............X...
   11a5c:	0198 0000 0020 0000 ff92 ffff 000a 0000     .... ...........
   11a6c:	027a 0000 0825 0000 fdaf ffff fd4a ffff     z...%.......J...
   11a7c:	0138 0000 0080 0000 ff96 ffff fff9 ffff     8...............
   11a8c:	fe30 ffff 08c3 0000 0011 0000 fcb6 ffff     0...............
   11a9c:	0096 0000 00cc 0000 ffaf ffff ffe7 ffff     ................
   11aac:	fa00 ffff 07b2 0000 0293 0000 fcbd ffff     ................
   11abc:	ffce ffff 00f4 0000 ffda ffff ffd9 ffff     ................
   11acc:	f6c0 ffff 0512 0000 04b9 0000 fd67 ffff     ............g...
   11adc:	ff05 ffff 00ef 0000 000d 0000 ffd2 ffff     ................
   11aec:	f51f ffff 014d 0000 0612 0000 fe9c ffff     ....M...........
   11afc:	fe61 ffff 00bb 0000 0041 0000 ffd4 ffff     a.......A.......
   11b0c:	f586 ffff fd12 ffff 064f 0000 0027 0000     ........O...'...
   11b1c:	fe05 ffff 0060 0000 006b 0000 ffdf ffff     ....`...k.......
   11b2c:	f800 ffff f929 ffff 0555 0000 01c1 0000     ....)...U.......
   11b3c:	fe07 ffff ffee ffff 0083 0000 fff0 ffff     ................
   11b4c:	fc2d ffff f65d ffff 0343 0000 031a 0000     -...]...C.......
   11b5c:	fe6b ffff ff79 ffff 0082 0000 0005 0000     k...y...........
   11b6c:	0158 0000 f549 ffff 0070 0000 03ec 0000     X...I...p.......
   11b7c:	ff24 ffff ff18 ffff 0068 0000 001b 0000     $.......h.......
   11b8c:	068c 0000 f63c ffff fd60 ffff 0406 0000     ....<...`.......
   11b9c:	0010 0000 fede ffff 0038 0000 002c 0000     ........8...,...
   11bac:	0ac8 0000 f924 ffff faa5 ffff 0359 0000     ....$.......Y...
   11bbc:	0107 0000 feda ffff fffc ffff 0036 0000     ............6...
   11bcc:	0d28 0000 fd8c ffff f8ce ffff 01fc 0000     (...............
   11bdc:	01d8 0000 ff10 ffff ffbd ffff 0036 0000     ............6...
   11bec:	0d1d 0000 02ae 0000 f843 ffff 0029 0000     ........C...)...
   11bfc:	0258 0000 ff76 ffff ff87 ffff 002b 0000     X...v.......+...
   11c0c:	0a84 0000 0797 0000 f931 ffff fe35 ffff     ........1...5...
   11c1c:	026b 0000 fffd ffff ff66 ffff 0017 0000     k.......f.......
   11c2c:	05ba 0000 0b4d 0000 fb7f ffff fc7e ffff     ....M.......~...
   11c3c:	0206 0000 008b 0000 ff62 ffff fffe ffff     ........b.......
   11c4c:	ff8d ffff 0d09 0000 fece ffff fb5e ffff     ............^...
   11c5c:	0137 0000 0106 0000 ff7c ffff ffe4 ffff     7.......|.......
   11c6c:	f91b ffff 0c55 0000 0286 0000 fb15 ffff     ....U...........
   11c7c:	0021 0000 0154 0000 ffb1 ffff ffce ffff     !...T...........
   11c8c:	f3a0 ffff 0934 0000 05f7 0000 fbbc ffff     ....4...........
   11c9c:	fef6 ffff 0165 0000 fff9 ffff ffc1 ffff     ....e...........
   11cac:	f03b ffff 041d 0000 0870 0000 fd40 ffff     ;.......p...@...
   11cbc:	fdef ffff 0130 0000 0045 0000 ffbf ffff     ....0...E.......
   11ccc:	efb1 ffff fdf2 ffff 0969 0000 ff62 ffff     ........i...b...
   11cdc:	fd40 ffff 00be 0000 0088 0000 ffca ffff     @...............
   11cec:	f247 ffff f7d3 ffff 089c 0000 01bf 0000     G...............
   11cfc:	fd11 ffff 0021 0000 00b4 0000 ffe1 ffff     ....!...........
   11d0c:	f7a8 ffff f2f3 ffff 061a 0000 03e7 0000     ................
   11d1c:	fd72 ffff ff76 ffff 00be 0000 fffe ffff     r...v...........
   11d2c:	fef3 ffff f054 ffff 0245 0000 056a 0000     ....T...E...j...
   11d3c:	fe57 ffff fedc ffff 00a5 0000 001d 0000     W...............
   11d4c:	06d7 0000 f097 ffff fdcc ffff 05f5 0000     ................
   11d5c:	ff9a ffff fe74 ffff 0069 0000 0038 0000     ....t...i...8...
   11d6c:	0dda 0000 f3d9 ffff f981 ffff 0560 0000     ............`...
   11d7c:	0101 0000 fe54 ffff 0016 0000 004a 0000     ....T.......J...
   11d8c:	1292 0000 f9a0 ffff f63c ffff 03b8 0000     ........<.......
   11d9c:	024a 0000 fe86 ffff ffbb ffff 004e 0000     J...........N...
   11dac:	13f8 0000 00f2 0000 f4ae ffff 0141 0000     ............A...
   11dbc:	0331 0000 ff04 ffff ff69 ffff 0042 0000     1.......i...B...
   11dcc:	1197 0000 087b 0000 f53b ffff fe6c ffff     ....{...;...l...
   11ddc:	0384 0000 ffba ffff ff30 ffff 0029 0000     ........0...)...
   11dec:	0bb2 0000 0ec9 0000 f7e3 ffff fbc0 ffff     ................
   11dfc:	032d 0000 0086 0000 ff1d ffff 0006 0000     -...............
   11e0c:	033a 0000 1294 0000 fc40 ffff f9c3 ffff     :.......@.......
   11e1c:	0233 0000 0143 0000 ff36 ffff ffe1 ffff     3...C...6.......
   11e2c:	f9b0 ffff 12fe 0000 018f 0000 f8e2 ffff     ................
   11e3c:	00be 0000 01ca 0000 ff79 ffff ffc0 ffff     ........y.......
   11e4c:	f0d9 ffff 0fc8 0000 06d7 0000 f958 ffff     ............X...
   11e5c:	ff12 ffff 01fd 0000 ffda ffff ffa9 ffff     ................
   11e6c:	ea72 ffff 095e 0000 0b11 0000 fb1e ffff     r...^...........
   11e7c:	fd7f ffff 01cf 0000 0047 0000 ffa2 ffff     ........G.......
   11e8c:	e7d6 ffff 00d4 0000 0d5f 0000 fded ffff     ........_.......
   11e9c:	fc55 ffff 0143 0000 00ac 0000 ffaf ffff     U...C...........
   11eac:	e9b7 ffff f7b3 ffff 0d36 0000 0146 0000     ........6...F...
   11ebc:	fbd5 ffff 0070 0000 00f5 0000 ffcc ffff     ....p...........
   11ecc:	eff2 ffff efb5 ffff 0a7e 0000 0489 0000     ........~.......
   11edc:	fc1f ffff ff7c ffff 0110 0000 fff5 ffff     ....|...........
   11eec:	f98d ffff ea72 ffff 059f 0000 0714 0000     ....r...........
   11efc:	fd30 ffff fe95 ffff 00f7 0000 0023 0000     0...........#...
   11f0c:	04d8 0000 e910 ffff ff6e ffff 085c 0000     ........n...\...
   11f1c:	fedd ffff fdea ffff 00ab 0000 004d 0000     ............M...
   11f2c:	0fc1 0000 ec01 ffff f90f ffff 0813 0000     ................
   11f3c:	00d8 0000 fda0 ffff 0037 0000 006a 0000     ........7...j...
   11f4c:	182c 0000 f2ea ffff f3bb ffff 0632 0000     ,...........2...
   11f5c:	02c2 0000 fdcc ffff ffb3 ffff 0074 0000     ............t...
   11f6c:	1c5f 0000 fca3 ffff f088 ffff 0304 0000     _...............
   11f7c:	0439 0000 fe6b ffff ff35 ffff 0067 0000     9...k...5...g...
   11f8c:	1b5c 0000 076e 0000 f02f ffff ff19 ffff     \...n.../.......
   11f9c:	04ec 0000 ff64 ffff fed7 ffff 0044 0000     ....d.......D...
   11fac:	151a 0000 1145 0000 f2e3 ffff fb2b ffff     ....E.......+...
   11fbc:	04af 0000 008a 0000 feb0 ffff 0011 0000     ................
   11fcc:	0a94 0000 1835 0000 f840 ffff f801 ffff     ....5...@.......
   11fdc:	037e 0000 01a7 0000 fec9 ffff ffd8 ffff     ~...............
   11fec:	fda3 ffff 1ac7 0000 ff5b ffff f646 ffff     ........[...F...
   11ffc:	018a 0000 0281 0000 ff22 ffff ffa2 ffff     ........".......
   1200c:	f0a7 ffff 184f 0000 06e2 0000 f662 ffff     ....O.......b...
   1201c:	ff2c ffff 02e7 0000 ffae ffff ff7a ffff     ,...........z...
   1202c:	e621 ffff 1111 0000 0d62 0000 f869 ffff     !.......b...i...
   1203c:	fcd5 ffff 02be 0000 0054 0000 ff6a ffff     ........T...j...
   1204c:	e02e ffff 0646 0000 1187 0000 fc0d ffff     ....F...........
   1205c:	fafe ffff 0206 0000 00f6 0000 ff76 ffff     ............v...
   1206c:	e01f ffff f9e4 ffff 1265 0000 00aa 0000     ........e.......
   1207c:	fa0d ffff 00d8 0000 0172 0000 ff9e ffff     ........r.......
   1208c:	e628 ffff ee47 ffff 0fa9 0000 0563 0000     (...G.......c...
   1209c:	fa40 ffff ff6b ffff 01af 0000 ffdb ffff     @...k...........
   120ac:	f153 ffff e5be ffff 09b3 0000 0947 0000     S...........G...
   120bc:	fb9f ffff fe01 ffff 019b 0000 0023 0000     ............#...
   120cc:	ff98 ffff e217 ffff 018d 0000 0b84 0000     ................
   120dc:	fdf7 ffff fce2 ffff 0136 0000 006a 0000     ........6...j...
   120ec:	0e41 0000 e43a ffff f8be ffff 0b8d 0000     A...:...........
   120fc:	00e1 0000 fc4b ffff 008d 0000 00a1 0000     ....K...........
   1210c:	1a6c 0000 ebf3 ffff f0ff ffff 093f 0000     l...........?...
   1211c:	03d4 0000 fc65 ffff ffbf ffff 00bb 0000     ....e...........
   1212c:	2197 0000 f7ed ffff ebee ffff 04ed 0000     .!..............
   1213c:	0639 0000 fd35 ffff feee ffff 00b2 0000     9...5...........
   1214c:	222a 0000 05e7 0000 eab6 ffff ff53 ffff     *"..........S...
   1215c:	078e 0000 fe9f ffff fe46 ffff 0086 0000     ........F.......
   1216c:	1bd1 0000 1321 0000 edcb ffff f979 ffff     ....!.......y...
   1217c:	077f 0000 0064 0000 fde9 ffff 003c 0000     ....d.......<...
   1218c:	0fa0 0000 1cda 0000 f4cc ffff f488 ffff     ................
   1219c:	05f6 0000 0235 0000 fdee ffff ffe1 ffff     ....5...........
   121ac:	ffec ffff 20e7 0000 fe89 ffff f188 ffff     ..... ..........
   121bc:	0329 0000 03b6 0000 fe5d ffff ff85 ffff     ).......].......
   121cc:	efdf ffff 1e24 0000 0932 0000 f131 ffff     ....$...2...1...
   121dc:	ff90 ffff 0495 0000 ff26 ffff ff3a ffff     ........&...:...
   121ec:	e2e5 ffff 14c4 0000 12b1 0000 f3c1 ffff     ................
   121fc:	fbd1 ffff 049d 0000 0027 0000 ff0f ffff     ........'.......
   1220c:	dbf5 ffff 0655 0000 1907 0000 f8e3 ffff     ....U...........
   1221c:	f8a8 ffff 03be 0000 0135 0000 ff10 ffff     ........5.......
   1222c:	dcf5 ffff f58a ffff 1aba 0000 ffbc ffff     ................
   1223c:	f6bd ffff 0211 0000 021c 0000 ff40 ffff     ............@...
   1224c:	e641 ffff e5b9 ffff 172a 0000 070b 0000     A.......*.......
   1225c:	f686 ffff ffdf ffff 02ab 0000 ff98 ffff     ................
   1226c:	f681 ffff da3f ffff 0eb9 0000 0d66 0000     ....?.......f...
   1227c:	f82a ffff fd89 ffff 02c1 0000 000a 0000     *...............
   1228c:	0ad2 0000 d5cf ffff 02ce 0000 1179 0000     ............y...
   1229c:	fb78 ffff fb81 ffff 0251 0000 0084 0000     x.......Q.......
   122ac:	1f45 0000 d9d6 ffff f59a ffff 124f 0000     E...........O...
   122bc:	ffe6 ffff fa32 ffff 0166 0000 00f0 0000     ....2...f.......
   122cc:	2f98 0000 e623 ffff e9b5 ffff 0f87 0000     ./..#...........
   122dc:	04a9 0000 f9eb ffff 0024 0000 0136 0000     ........$...6...
   122ec:	3810 0000 f8cd ffff e1a2 ffff 0971 0000     .8..........q...
   122fc:	08da 0000 facb ffff fec2 ffff 0148 0000     ............H...
   1230c:	364a 0000 0e7a 0000 df4c ffff 010b 0000     J6..z...L.......
   1231c:	0b9b 0000 fcbd ffff fd7f ffff 011e 0000     ................
   1232c:	29cb 0000 22f5 0000 e395 ffff f7da ffff     .)..."..........
   1233c:	0c4a 0000 ff76 ffff fc9b ffff 00bc 0000     J...v...........
   1234c:	1442 0000 31f5 0000 ee1d ffff efa5 ffff     B....1..........
   1235c:	0a9d 0000 027f 0000 fc47 ffff 002e 0000     ........G.......
   1236c:	f95a ffff 37fb 0000 fd3a ffff ea24 ffff     Z....7..:...$...
   1237c:	06bd 0000 054d 0000 fc9d ffff ff8d ffff     ....M...........
   1238c:	de1f ffff 3315 0000 0e31 0000 e8a4 ffff     .....3..1.......
   1239c:	0141 0000 0752 0000 fd9a ffff fef2 ffff     A...R...........
   123ac:	c816 ffff 2364 0000 1dbb 0000 ebc2 ffff     ....d#..........
   123bc:	fb1c ffff 081f 0000 ff1d ffff fe79 ffff     ............y...
   123cc:	bc26 ffff 0b3d 0000 288f 0000 f33d ffff     &...=....(..=...
   123dc:	f56f ffff 0776 0000 00e8 0000 fe3a ffff     o...v.......:...
   123ec:	bd8e ffff eedc ffff 2c18 0000 fdf3 ffff     .........,......
   123fc:	f15e ffff 055b 0000 02b0 0000 fe44 ffff     ^...[.......D...
   1240c:	cd15 ffff d3b3 ffff 2700 0000 0a08 0000     .........'......
   1241c:	efd0 ffff 0217 0000 0425 0000 fe99 ffff     ........%.......
   1242c:	e8b2 ffff bf6b ffff 198e 0000 1538 0000     ....k.......8...
   1243c:	f147 ffff fe2f ffff 0501 0000 ff31 ffff     G.../.......1...
   1244c:	0bb4 0000 b6c4 ffff 05ba 0000 1d3c 0000     ............<...
   1245c:	f5b9 ffff fa49 ffff 0514 0000 fff7 ffff     ....I...........
   1246c:	2f7f 0000 bc8f ffff eeee ffff 2038 0000     ./..........8 ..
   1247c:	fc8e ffff f71a ffff 0451 0000 00cd 0000     ........Q.......
   1248c:	4cb0 0000 d0f2 ffff d972 ffff 1d24 0000     .L......r...$...
   1249c:	04b2 0000 f542 ffff 02cb 0000 0197 0000     ....B...........
   124ac:	5c91 0000 f121 ffff c9b5 ffff 1409 0000     .\..!...........
   124bc:	0cbe 0000 f529 ffff 00b9 0000 0237 0000     ....).......7...
   124cc:	5a7f 0000 17ac 0000 c369 ffff 0618 0000     .Z......i.......
   124dc:	1336 0000 f6f5 ffff fe69 ffff 0298 0000     6.......i.......
   124ec:	450d 0000 3d53 0000 c8c1 ffff f585 ffff     .E..S=..........
   124fc:	16ca 0000 fa76 ffff fc32 ffff 02af 0000     ....v...2.......
   1250c:	1ea3 0000 5a47 0000 d9de ffff e531 ffff     ....GZ......1...
   1251c:	1697 0000 ff36 ffff fa68 ffff 027e 0000     ....6...h...~...
   1252c:	ed67 ffff 67a7 0000 f49f ffff d834 ffff     g....g......4...
   1253c:	1253 0000 0482 0000 f94c ffff 0215 0000     S.......L.......
   1254c:	ba5e ffff 60f4 0000 14d1 0000 d14c ffff     ^....`......L...
   1255c:	0a61 0000 0993 0000 f901 ffff 0189 0000     a...............
   1256c:	8fff ffff 4529 0000 34cc 0000 d25c ffff     ....)E...4..\...
   1257c:	ffc9 ffff 0da5 0000 f983 ffff 00f7 0000     ................
   1258c:	783d ffff 1753 0000 4e5a 0000 dc0a ffff     =x..S...ZN......
   1259c:	f408 ffff 1021 0000 faae ffff 0079 0000     ....!.......y...
   125ac:	7a87 ffff de66 ffff 5bcf 0000 ed8c ffff     .z..f....[......
   125bc:	e8dc ffff 10b7 0000 fc42 ffff 0023 0000     ........B...#...
   125cc:	9a06 ffff a459 ffff 5919 0000 04ba 0000     ....Y....Y......
   125dc:	dff0 ffff 0f66 0000 fdee ffff 0000 0000     ....f...........
   125ec:	d46f ffff 74a6 ffff 449c 0000 1e62 0000     o....t...D..b...
   125fc:	da96 ffff 0c81 0000 ff66 ffff 000d 0000     ........f.......
   1260c:	21c4 0000 5a5a ffff 1fa2 0000 36c2 0000     .!..ZZ.......6..
   1261c:	d987 ffff 089d 0000 0069 0000 0040 0000     ........i...@...
   1262c:	750a 0000 5e0e ffff ee5c ffff 4a32 0000     .u...^..\...2J..
   1263c:	dcc8 ffff 0474 0000 00d6 0000 0085 0000     ....t...........
   1264c:	bdf0 0000 8427 ffff b74e ffff 55be 0000     ....'...N....U..
   1265c:	e3a7 ffff 00bf 0000 00ab 0000 00c4 0000     ................
   1266c:	eb48 0000 cbaf ffff 8260 ffff 57b2 0000     H.......`....W..
   1267c:	ecdb ffff fe1a ffff 0008 0000 00e9 0000     ................
   1268c:	edc7 0000 2dfe 0000 578d ffff 4fe4 0000     .....-...W...O..
   1269c:	f6c3 ffff fcdd ffff ff24 ffff 00e6 0000     ........$.......
   126ac:	bac7 0000 9f61 0000 3d92 ffff 3fc5 0000     ....a....=...?..
   126bc:	ffb2 ffff fd1a ffff fe41 ffff 00b5 0000     ........A.......
   126cc:	4e75 0000 1093 0001 38b8 ffff 2a1f 0000     uN.......8...*..
   126dc:	063e 0000 fe8f ffff fda3 ffff 005f 0000     >..........._...
   126ec:	ad0c ffff 70fd 0001 4a07 ffff 129b 0000     .....p...J......
   126fc:	0986 0000 00bf 0000 fd78 ffff fff5 ffff     ........x.......
   1270c:	e2e3 fffe b13b 0001 6efa ffff fd17 ffff     ....;....n......
   1271c:	094f 0000 030c 0000 fdd3 ffff ff8c ffff     O...............
   1272c:	032e fffe c59a 0001 a1d3 ffff ecf2 ffff     ................
   1273c:	0616 0000 04d9 0000 fea6 ffff ff3c ffff     ............<...
   1274c:	25a1 fffd a817 0001 da7c ffff e476 ffff     .%......|...v...
   1275c:	00e8 0000 05ab 0000 ffc7 ffff ff16 ffff     ................
   1276c:	6342 fffc 5989 0001 0fcd 0000 e46b ffff     Bc...Y......k...
   1277c:	fb2e ffff 0546 0000 00f5 0000 ff25 ffff     ....F.......%...
   1278c:	d2eb fffb e1bc 0000 391c 0000 ebf2 ffff     .........9......
   1279c:	f658 ffff 03b8 0000 01f0 0000 ff65 ffff     X...........e...
   127ac:	85ff fffb 4e76 0000 4f9f 0000 f8b2 ffff     ....vN...O......
   127bc:	f399 ffff 0157 0000 027e 0000 ffc9 ffff     ....W...~.......
   127cc:	85ff fffb b18a ffff 4f9f 0000 074e 0000     .........O..N...
   127dc:	f399 ffff fea9 ffff 027e 0000 0037 0000     ........~...7...
   127ec:	d2eb fffb 1e44 ffff 391c 0000 140e 0000     ....D....9......
   127fc:	f658 ffff fc48 ffff 01f0 0000 009b 0000     X...H...........
   1280c:	6342 fffc a677 fffe 0fcd 0000 1b95 0000     Bc..w...........
   1281c:	fb2e ffff faba ffff 00f5 0000 00db 0000     ................
   1282c:	25a1 fffd 57e9 fffe da7c ffff 1b8a 0000     .%...W..|.......
   1283c:	00e8 0000 fa55 ffff ffc7 ffff 00ea 0000     ....U...........
   1284c:	032e fffe 3a66 fffe a1d3 ffff 130e 0000     ....f:..........
   1285c:	0616 0000 fb27 ffff fea6 ffff 00c4 0000     ....'...........
   1286c:	e2e3 fffe 4ec5 fffe 6efa ffff 02e9 0000     .....N...n......
   1287c:	094f 0000 fcf4 ffff fdd3 ffff 0074 0000     O...........t...
   1288c:	ad0c ffff 8f03 fffe 4a07 ffff ed65 ffff     .........J..e...
   1289c:	0986 0000 ff41 ffff fd78 ffff 000b 0000     ....A...x.......
   128ac:	4e75 0000 ef6d fffe 38b8 ffff d5e1 ffff     uN..m....8......
   128bc:	063e 0000 0171 0000 fda3 ffff ffa1 ffff     >...q...........
   128cc:	bac7 0000 609f ffff 3d92 ffff c03b ffff     .....`...=..;...
   128dc:	ffb2 ffff 02e6 0000 fe41 ffff ff4b ffff     ........A...K...
   128ec:	edc7 0000 d202 ffff 578d ffff b01c ffff     .........W......
   128fc:	f6c3 ffff 0323 0000 ff24 ffff ff1a ffff     ....#...$.......
   1290c:	eb48 0000 3451 0000 8260 ffff a84e ffff     H...Q4..`...N...
   1291c:	ecdb ffff 01e6 0000 0008 0000 ff17 ffff     ................
   1292c:	bdf0 0000 7bd9 0000 b74e ffff aa42 ffff     .....{..N...B...
   1293c:	e3a7 ffff ff41 ffff 00ab 0000 ff3c ffff     ....A.......<...
   1294c:	750a 0000 a1f2 0000 ee5c ffff b5ce ffff     .u......\.......
   1295c:	dcc8 ffff fb8c ffff 00d6 0000 ff7b ffff     ............{...
   1296c:	21c4 0000 a5a6 0000 1fa2 0000 c93e ffff     .!..........>...
   1297c:	d987 ffff f763 ffff 0069 0000 ffc0 ffff     ....c...i.......
   1298c:	d46f ffff 8b5a 0000 449c 0000 e19e ffff     o...Z....D......
   1299c:	da96 ffff f37f ffff ff66 ffff fff3 ffff     ........f.......
   129ac:	9a06 ffff 5ba7 0000 5919 0000 fb46 ffff     .....[...Y..F...
   129bc:	dff0 ffff f09a ffff fdee ffff 0000 0000     ................
   129cc:	7a87 ffff 219a 0000 5bcf 0000 1274 0000     .z...!...[..t...
   129dc:	e8dc ffff ef49 ffff fc42 ffff ffdd ffff     ....I...B.......
   129ec:	783d ffff e8ad ffff 4e5a 0000 23f6 0000     =x......ZN...#..
   129fc:	f408 ffff efdf ffff faae ffff ff87 ffff     ................
   12a0c:	8fff ffff bad7 ffff 34cc 0000 2da4 0000     .........4...-..
   12a1c:	ffc9 ffff f25b ffff f983 ffff ff09 ffff     ....[...........
   12a2c:	ba5e ffff 9f0c ffff 14d1 0000 2eb4 0000     ^...............
   12a3c:	0a61 0000 f66d ffff f901 ffff fe77 ffff     a...m.......w...
   12a4c:	ed67 ffff 9859 ffff f49f ffff 27cc 0000     g...Y........'..
   12a5c:	1253 0000 fb7e ffff f94c ffff fdeb ffff     S...~...L.......
   12a6c:	1ea3 0000 a5b9 ffff d9de ffff 1acf 0000     ................
   12a7c:	1697 0000 00ca 0000 fa68 ffff fd82 ffff     ........h.......
   12a8c:	450d 0000 c2ad ffff c8c1 ffff 0a7b 0000     .E..........{...
   12a9c:	16ca 0000 058a 0000 fc32 ffff fd51 ffff     ........2...Q...
   12aac:	5a7f 0000 e854 ffff c369 ffff f9e8 ffff     .Z..T...i.......
   12abc:	1336 0000 090b 0000 fe69 ffff fd68 ffff     6.......i...h...
   12acc:	5c91 0000 0edf 0000 c9b5 ffff ebf7 ffff     .\..............
   12adc:	0cbe 0000 0ad7 0000 00b9 0000 fdc9 ffff     ................
   12aec:	4cb0 0000 2f0e 0000 d972 ffff e2dc ffff     .L.../..r.......
   12afc:	04b2 0000 0abe 0000 02cb 0000 fe69 ffff     ............i...
   12b0c:	2f7f 0000 4371 0000 eeee ffff dfc8 ffff     ./..qC..........
   12b1c:	fc8e ffff 08e6 0000 0451 0000 ff33 ffff     ........Q...3...
   12b2c:	0bb4 0000 493c 0000 05ba 0000 e2c4 ffff     ....<I..........
   12b3c:	f5b9 ffff 05b7 0000 0514 0000 0009 0000     ................
   12b4c:	e8b2 ffff 4095 0000 198e 0000 eac8 ffff     .....@..........
   12b5c:	f147 ffff 01d1 0000 0501 0000 00cf 0000     G...............
   12b6c:	cd15 ffff 2c4d 0000 2700 0000 f5f8 ffff     ....M,...'......
   12b7c:	efd0 ffff fde9 ffff 0425 0000 0167 0000     ........%...g...
   12b8c:	bd8e ffff 1124 0000 2c18 0000 020d 0000     ....$....,......
   12b9c:	f15e ffff faa5 ffff 02b0 0000 01bc 0000     ^...............
   12bac:	bc26 ffff f4c3 ffff 288f 0000 0cc3 0000     &........(......
   12bbc:	f56f ffff f88a ffff 00e8 0000 01c6 0000     o...............
   12bcc:	c816 ffff dc9c ffff 1dbb 0000 143e 0000     ............>...
   12bdc:	fb1c ffff f7e1 ffff ff1d ffff 0187 0000     ................
   12bec:	de1f ffff cceb ffff 0e31 0000 175c 0000     ........1...\...
   12bfc:	0141 0000 f8ae ffff fd9a ffff 010e 0000     A...............
   12c0c:	f95a ffff c805 ffff fd3a ffff 15dc 0000     Z.......:.......
   12c1c:	06bd 0000 fab3 ffff fc9d ffff 0073 0000     ............s...
   12c2c:	1442 0000 ce0b ffff ee1d ffff 105b 0000     B...........[...
   12c3c:	0a9d 0000 fd81 ffff fc47 ffff ffd2 ffff     ........G.......
   12c4c:	29cb 0000 dd0b ffff e395 ffff 0826 0000     .)..........&...
   12c5c:	0c4a 0000 008a 0000 fc9b ffff ff44 ffff     J...........D...
   12c6c:	364a 0000 f186 ffff df4c ffff fef5 ffff     J6......L.......
   12c7c:	0b9b 0000 0343 0000 fd7f ffff fee2 ffff     ....C...........
   12c8c:	3810 0000 0733 0000 e1a2 ffff f68f ffff     .8..3...........
   12c9c:	08da 0000 0535 0000 fec2 ffff feb8 ffff     ....5...........
   12cac:	2f98 0000 19dd 0000 e9b5 ffff f079 ffff     ./..........y...
   12cbc:	04a9 0000 0615 0000 0024 0000 feca ffff     ........$.......
   12ccc:	1f45 0000 262a 0000 f59a ffff edb1 ffff     E...*&..........
   12cdc:	ffe6 ffff 05ce 0000 0166 0000 ff10 ffff     ........f.......
   12cec:	0ad2 0000 2a31 0000 02ce 0000 ee87 ffff     ....1*..........
   12cfc:	fb78 ffff 047f 0000 0251 0000 ff7c ffff     x.......Q...|...
   12d0c:	f681 ffff 25c1 0000 0eb9 0000 f29a ffff     .....%..........
   12d1c:	f82a ffff 0277 0000 02c1 0000 fff6 ffff     *...w...........
   12d2c:	e641 ffff 1a47 0000 172a 0000 f8f5 ffff     A...G...*.......
   12d3c:	f686 ffff 0021 0000 02ab 0000 0068 0000     ....!.......h...
   12d4c:	dcf5 ffff 0a76 0000 1aba 0000 0044 0000     ....v.......D...
   12d5c:	f6bd ffff fdef ffff 021c 0000 00c0 0000     ................
   12d6c:	dbf5 ffff f9ab ffff 1907 0000 071d 0000     ................
   12d7c:	f8a8 ffff fc42 ffff 0135 0000 00f0 0000     ....B...5.......
   12d8c:	e2e5 ffff eb3c ffff 12b1 0000 0c3f 0000     ....<.......?...
   12d9c:	fbd1 ffff fb63 ffff 0027 0000 00f1 0000     ....c...'.......
   12dac:	efdf ffff e1dc ffff 0932 0000 0ecf 0000     ........2.......
   12dbc:	ff90 ffff fb6b ffff ff26 ffff 00c6 0000     ....k...&.......
   12dcc:	ffec ffff df19 ffff fe89 ffff 0e78 0000     ............x...
   12ddc:	0329 0000 fc4a ffff fe5d ffff 007b 0000     )...J...]...{...
   12dec:	0fa0 0000 e326 ffff f4cc ffff 0b78 0000     ....&.......x...
   12dfc:	05f6 0000 fdcb ffff fdee ffff 001f 0000     ................
   12e0c:	1bd1 0000 ecdf ffff edcb ffff 0687 0000     ................
   12e1c:	077f 0000 ff9c ffff fde9 ffff ffc4 ffff     ................
   12e2c:	222a 0000 fa19 ffff eab6 ffff 00ad 0000     *"..............
   12e3c:	078e 0000 0161 0000 fe46 ffff ff7a ffff     ....a...F...z...
   12e4c:	2197 0000 0813 0000 ebee ffff fb13 ffff     .!..............
   12e5c:	0639 0000 02cb 0000 feee ffff ff4e ffff     9...........N...
   12e6c:	1a6c 0000 140d 0000 f0ff ffff f6c1 ffff     l...............
   12e7c:	03d4 0000 039b 0000 ffbf ffff ff45 ffff     ............E...
   12e8c:	0e41 0000 1bc6 0000 f8be ffff f473 ffff     A...........s...
   12e9c:	00e1 0000 03b5 0000 008d 0000 ff5f ffff     ............_...
   12eac:	ff98 ffff 1de9 0000 018d 0000 f47c ffff     ............|...
   12ebc:	fdf7 ffff 031e 0000 0136 0000 ff96 ffff     ........6.......
   12ecc:	f153 ffff 1a42 0000 09b3 0000 f6b9 ffff     S...B...........
   12edc:	fb9f ffff 01ff 0000 019b 0000 ffdd ffff     ................
   12eec:	e628 ffff 11b9 0000 0fa9 0000 fa9d ffff     (...............
   12efc:	fa40 ffff 0095 0000 01af 0000 0025 0000     @...........%...
   12f0c:	e01f ffff 061c 0000 1265 0000 ff56 ffff     ........e...V...
   12f1c:	fa0d ffff ff28 ffff 0172 0000 0062 0000     ....(...r...b...
   12f2c:	e02e ffff f9ba ffff 1187 0000 03f3 0000     ................
   12f3c:	fafe ffff fdfa ffff 00f6 0000 008a 0000     ................
   12f4c:	e621 ffff eeef ffff 0d62 0000 0797 0000     !.......b.......
   12f5c:	fcd5 ffff fd42 ffff 0054 0000 0096 0000     ....B...T.......
   12f6c:	f0a7 ffff e7b1 ffff 06e2 0000 099e 0000     ................
   12f7c:	ff2c ffff fd19 ffff ffae ffff 0086 0000     ,...............
   12f8c:	fda3 ffff e539 ffff ff5b ffff 09ba 0000     ....9...[.......
   12f9c:	018a 0000 fd7f ffff ff22 ffff 005e 0000     ........"...^...
   12fac:	0a94 0000 e7cb ffff f840 ffff 07ff 0000     ........@.......
   12fbc:	037e 0000 fe59 ffff fec9 ffff 0028 0000     ~...Y.......(...
   12fcc:	151a 0000 eebb ffff f2e3 ffff 04d5 0000     ................
   12fdc:	04af 0000 ff76 ffff feb0 ffff ffef ffff     ....v...........
   12fec:	1b5c 0000 f892 ffff f02f ffff 00e7 0000     \......./.......
   12ffc:	04ec 0000 009c 0000 fed7 ffff ffbc ffff     ................
   1300c:	1c5f 0000 035d 0000 f088 ffff fcfc ffff     _...]...........
   1301c:	0439 0000 0195 0000 ff35 ffff ff99 ffff     9.......5.......
   1302c:	182c 0000 0d16 0000 f3bb ffff f9ce ffff     ,...............
   1303c:	02c2 0000 0234 0000 ffb3 ffff ff8c ffff     ....4...........
   1304c:	0fc1 0000 13ff 0000 f90f ffff f7ed ffff     ................
   1305c:	00d8 0000 0260 0000 0037 0000 ff96 ffff     ....`...7.......
   1306c:	04d8 0000 16f0 0000 ff6e ffff f7a4 ffff     ........n.......
   1307c:	fedd ffff 0216 0000 00ab 0000 ffb3 ffff     ................
   1308c:	f98d ffff 158e 0000 059f 0000 f8ec ffff     ................
   1309c:	fd30 ffff 016b 0000 00f7 0000 ffdd ffff     0...k...........
   130ac:	eff2 ffff 104b 0000 0a7e 0000 fb77 ffff     ....K...~...w...
   130bc:	fc1f ffff 0084 0000 0110 0000 000b 0000     ................
   130cc:	e9b7 ffff 084d 0000 0d36 0000 feba ffff     ....M...6.......
   130dc:	fbd5 ffff ff90 ffff 00f5 0000 0034 0000     ............4...
   130ec:	e7d6 ffff ff2c ffff 0d5f 0000 0213 0000     ....,..._.......
   130fc:	fc55 ffff febd ffff 00ac 0000 0051 0000     U...........Q...
   1310c:	ea72 ffff f6a2 ffff 0b11 0000 04e2 0000     r...............
   1311c:	fd7f ffff fe31 ffff 0047 0000 005e 0000     ....1...G...^...
   1312c:	f0d9 ffff f038 ffff 06d7 0000 06a8 0000     ....8...........
   1313c:	ff12 ffff fe03 ffff ffda ffff 0057 0000     ............W...
   1314c:	f9b0 ffff ed02 ffff 018f 0000 071e 0000     ................
   1315c:	00be 0000 fe36 ffff ff79 ffff 0040 0000     ....6...y...@...
   1316c:	033a 0000 ed6c ffff fc40 ffff 063d 0000     :...l...@...=...
   1317c:	0233 0000 febd ffff ff36 ffff 001f 0000     3.......6.......
   1318c:	0bb2 0000 f137 ffff f7e3 ffff 0440 0000     ....7.......@...
   1319c:	032d 0000 ff7a ffff ff1d ffff fffa ffff     -...z...........
   131ac:	1197 0000 f785 ffff f53b ffff 0194 0000     ........;.......
   131bc:	0384 0000 0046 0000 ff30 ffff ffd7 ffff     ....F...0.......
   131cc:	13f8 0000 ff0e ffff f4ae ffff febf ffff     ................
   131dc:	0331 0000 00fc 0000 ff69 ffff ffbe ffff     1.......i.......
   131ec:	1292 0000 0660 0000 f63c ffff fc48 ffff     ....`...<...H...
   131fc:	024a 0000 017a 0000 ffbb ffff ffb2 ffff     J...z...........
   1320c:	0dda 0000 0c27 0000 f981 ffff faa0 ffff     ....'...........
   1321c:	0101 0000 01ac 0000 0016 0000 ffb6 ffff     ................
   1322c:	06d7 0000 0f69 0000 fdcc ffff fa0b ffff     ....i...........
   1323c:	ff9a ffff 018c 0000 0069 0000 ffc8 ffff     ........i.......
   1324c:	fef3 ffff 0fac 0000 0245 0000 fa96 ffff     ........E.......
   1325c:	fe57 ffff 0124 0000 00a5 0000 ffe3 ffff     W...$...........
   1326c:	f7a8 ffff 0d0d 0000 061a 0000 fc19 ffff     ................
   1327c:	fd72 ffff 008a 0000 00be 0000 0002 0000     r...............
   1328c:	f247 ffff 082d 0000 089c 0000 fe41 ffff     G...-.......A...
   1329c:	fd11 ffff ffdf ffff 00b4 0000 001f 0000     ................
   132ac:	efb1 ffff 020e 0000 0969 0000 009e 0000     ........i.......
   132bc:	fd40 ffff ff42 ffff 0088 0000 0036 0000     @...B.......6...
   132cc:	f03b ffff fbe3 ffff 0870 0000 02c0 0000     ;.......p.......
   132dc:	fdef ffff fed0 ffff 0045 0000 0041 0000     ........E...A...
   132ec:	f3a0 ffff f6cc ffff 05f7 0000 0444 0000     ............D...
   132fc:	fef6 ffff fe9b ffff fff9 ffff 003f 0000     ............?...
   1330c:	f91b ffff f3ab ffff 0286 0000 04eb 0000     ................
   1331c:	0021 0000 feac ffff ffb1 ffff 0032 0000     !...........2...
   1332c:	ff8d ffff f2f7 ffff fece ffff 04a2 0000     ................
   1333c:	0137 0000 fefa ffff ff7c ffff 001c 0000     7.......|.......
   1334c:	05ba 0000 f4b3 ffff fb7f ffff 0382 0000     ................
   1335c:	0206 0000 ff75 ffff ff62 ffff 0002 0000     ....u...b.......
   1336c:	0a84 0000 f869 ffff f931 ffff 01cb 0000     ....i...1.......
   1337c:	026b 0000 0003 0000 ff66 ffff ffe9 ffff     k.......f.......
   1338c:	0d1d 0000 fd52 ffff f843 ffff ffd7 ffff     ....R...C.......
   1339c:	0258 0000 008a 0000 ff87 ffff ffd5 ffff     X...............
   133ac:	0d28 0000 0274 0000 f8ce ffff fe04 ffff     (...t...........
   133bc:	01d8 0000 00f0 0000 ffbd ffff ffca ffff     ................
   133cc:	0ac8 0000 06dc 0000 faa5 ffff fca7 ffff     ................
   133dc:	0107 0000 0126 0000 fffc ffff ffca ffff     ....&...........
   133ec:	068c 0000 09c4 0000 fd60 ffff fbfa ffff     ........`.......
   133fc:	0010 0000 0122 0000 0038 0000 ffd4 ffff     ...."...8.......
   1340c:	0158 0000 0ab7 0000 0070 0000 fc14 ffff     X.......p.......
   1341c:	ff24 ffff 00e8 0000 0068 0000 ffe5 ffff     $.......h.......
   1342c:	fc2d ffff 09a3 0000 0343 0000 fce6 ffff     -.......C.......
   1343c:	fe6b ffff 0087 0000 0082 0000 fffb ffff     k...............
   1344c:	f800 ffff 06d7 0000 0555 0000 fe3f ffff     ........U...?...
   1345c:	fe07 ffff 0012 0000 0083 0000 0010 0000     ................
   1346c:	f586 ffff 02ee 0000 064f 0000 ffd9 ffff     ........O.......
   1347c:	fe05 ffff ffa0 ffff 006b 0000 0021 0000     ........k...!...
   1348c:	f51f ffff feb3 ffff 0612 0000 0164 0000     ............d...
   1349c:	fe61 ffff ff45 ffff 0041 0000 002c 0000     a...E...A...,...
   134ac:	f6c0 ffff faee ffff 04b9 0000 0299 0000     ................
   134bc:	ff05 ffff ff11 ffff 000d 0000 002e 0000     ................
   134cc:	fa00 ffff f84e ffff 0293 0000 0343 0000     ....N.......C...
   134dc:	ffce ffff ff0c ffff ffda ffff 0027 0000     ............'...
   134ec:	fe30 ffff f73d ffff 0011 0000 034a 0000     0...=.......J...
   134fc:	0096 0000 ff34 ffff ffaf ffff 0019 0000     ....4...........
   1350c:	027a 0000 f7db ffff fdaf ffff 02b6 0000     z...............
   1351c:	0138 0000 ff80 ffff ff96 ffff 0007 0000     8...............
   1352c:	0615 0000 f9f2 ffff fbda ffff 01a8 0000     ................
   1353c:	0198 0000 ffe0 ffff ff92 ffff fff6 ffff     ................
   1354c:	085d 0000 fd0b ffff fae2 ffff 005b 0000     ]...........[...
   1355c:	01a8 0000 0040 0000 ffa3 ffff ffe7 ffff     ....@...........
   1356c:	08fa 0000 0085 0000 faea ffff ff0f ffff     ................
   1357c:	0168 0000 008f 0000 ffc3 ffff ffdd ffff     h...............
   1358c:	07e4 0000 03b7 0000 fbe2 ffff fe01 ffff     ................
   1359c:	00ea 0000 00c1 0000 ffee ffff ffda ffff     ................
   135ac:	0567 0000 060e 0000 fd90 ffff fd5f ffff     g..........._...
   135bc:	0047 0000 00cc 0000 0018 0000 ffde ffff     G...............
   135cc:	020b 0000 0726 0000 ff9b ffff fd42 ffff     ....&.......B...
   135dc:	ffa0 ffff 00b0 0000 003d 0000 ffe9 ffff     ........=.......
   135ec:	fe7d ffff 06dc 0000 019c 0000 fda9 ffff     }...............
   135fc:	ff13 ffff 0076 0000 0055 0000 fff7 ffff     ....v...U.......
   1360c:	fb66 ffff 0551 0000 0336 0000 fe79 ffff     f...Q...6...y...
   1361c:	feb9 ffff 0029 0000 005b 0000 0006 0000     ....)...[.......
   1362c:	f953 ffff 02de 0000 0423 0000 ff86 ffff     S.......#.......
   1363c:	fea1 ffff ffd9 ffff 0051 0000 0013 0000     ........Q.......
   1364c:	f898 ffff 0004 0000 043f 0000 009b 0000     ........?.......
   1365c:	feca ffff ff94 ffff 0038 0000 001c 0000     ........8.......
   1366c:	f948 ffff fd51 ffff 0390 0000 0185 0000     H...Q...........
   1367c:	ff2b ffff ff66 ffff 0015 0000 001f 0000     +...f...........
   1368c:	fb2d ffff fb40 ffff 0241 0000 021c 0000     -...@...A.......
   1369c:	ffae ffff ff57 ffff fff2 ffff 001d 0000     ....W...........
   136ac:	fdde ffff fa2c ffff 0099 0000 0246 0000     ....,.......F...
   136bc:	0039 0000 ff69 ffff ffd2 ffff 0015 0000     9...i...........
   136cc:	00cf 0000 fa3c ffff feec ffff 0202 0000     ....<...........
   136dc:	00b2 0000 ff95 ffff ffbd ffff 0009 0000     ................
   136ec:	0374 0000 fb5c ffff fd88 ffff 0163 0000     t...\.......c...
   136fc:	0104 0000 ffd3 ffff ffb5 ffff fffe ffff     ................
   1370c:	0551 0000 fd49 ffff fcab ffff 008a 0000     Q...I...........
   1371c:	0122 0000 0015 0000 ffbb ffff fff2 ffff     "...............
   1372c:	0619 0000 ff9e ffff fc78 ffff ffa4 ffff     ........x.......
   1373c:	0108 0000 0051 0000 ffce ffff ffea ffff     ....Q...........
   1374c:	05b6 0000 01e4 0000 fcef ffff feda ffff     ................
   1375c:	00bf 0000 007a 0000 ffe9 ffff ffe6 ffff     ....z...........
   1376c:	0449 0000 03b4 0000 fdf1 ffff fe52 ffff     I...........R...
   1377c:	0056 0000 008b 0000 0006 0000 ffe8 ffff     V...............
   1378c:	0223 0000 04bc 0000 ff48 ffff fe20 ffff     #.......H... ...
   1379c:	ffe4 ffff 0081 0000 0022 0000 ffee ffff     ........".......
   137ac:	ffb5 ffff 04d6 0000 00ae 0000 fe49 ffff     ............I...
   137bc:	ff7c ffff 005f 0000 0035 0000 fff7 ffff     |..._...5.......
   137cc:	fd75 ffff 0409 0000 01e2 0000 fec2 ffff     u...............
   137dc:	ff32 ffff 002e 0000 003e 0000 0000 0000     2.......>.......
   137ec:	fbcb ffff 0287 0000 02ac 0000 ff70 ffff     ............p...
   137fc:	ff12 ffff fff8 ffff 003a 0000 000a 0000     ........:.......
   1380c:	fafe ffff 00a1 0000 02ee 0000 002e 0000     ................
   1381c:	ff20 ffff ffc5 ffff 002c 0000 0011 0000      .......,.......
   1382c:	fb2a ffff feb8 ffff 02a1 0000 00da 0000     *...............
   1383c:	ff57 ffff ffa0 ffff 0017 0000 0015 0000     W...............
   1384c:	fc38 ffff fd24 ffff 01dc 0000 0156 0000     8...$.......V...
   1385c:	ffaa ffff ff8f ffff ffff ffff 0014 0000     ................
   1386c:	fdec ffff fc2c ffff 00c8 0000 018b 0000     ....,...........
   1387c:	0008 0000 ff93 ffff ffe8 ffff 0010 0000     ................
   1388c:	ffec ffff fbf6 ffff ff9f ffff 0175 0000     ............u...
   1389c:	0060 0000 ffac ffff ffd6 ffff 0009 0000     `...............
   138ac:	01d5 0000 fc83 ffff fe96 ffff 011a 0000     ................
   138bc:	00a2 0000 ffd3 ffff ffce ffff 0000 0000     ................
   138cc:	034e 0000 fdae ffff fdde ffff 0090 0000     N...............
   138dc:	00c3 0000 0000 0000 ffcf ffff fff9 ffff     ................
   138ec:	0417 0000 ff37 ffff fd95 ffff fff4 ffff     ....7...........
   138fc:	00bd 0000 002a 0000 ffd9 ffff fff3 ffff     ....*...........
   1390c:	0414 0000 00d1 0000 fdc2 ffff ff61 ffff     ............a...
   1391c:	0095 0000 004b 0000 ffea ffff ffef ffff     ....K...........
   1392c:	0350 0000 022f 0000 fe57 ffff fef3 ffff     P.../...W.......
   1393c:	0053 0000 005c 0000 fffe ffff ffef ffff     S...\...........
   1394c:	01f9 0000 0314 0000 ff33 ffff febd ffff     ........3.......
   1395c:	0005 0000 005b 0000 0011 0000 fff2 ffff     ....[...........
   1396c:	0056 0000 035b 0000 0029 0000 fec5 ffff     V...[...).......
   1397c:	ffbb ffff 004a 0000 0020 0000 fff8 ffff     ....J... .......
   1398c:	feba ffff 02ff 0000 010b 0000 ff08 ffff     ................
   1399c:	ff81 ffff 002b 0000 0029 0000 ffff ffff     ....+...).......
   139ac:	fd6e ffff 021b 0000 01b0 0000 ff75 ffff     n...........u...
   139bc:	ff61 ffff 0006 0000 0029 0000 0004 0000     a.......).......
   139cc:	fcae ffff 00de 0000 01fd 0000 fff6 ffff     ................
   139dc:	ff61 ffff ffe2 ffff 0022 0000 000a 0000     a.......".......
   139ec:	fc94 ffff ff89 ffff 01e7 0000 0071 0000     ............q...
   139fc:	ff7e ffff ffc6 ffff 0014 0000 000d 0000     ~...............
   13a0c:	fd1e ffff fe5c ffff 0178 0000 00d2 0000     ....\...x.......
   13a1c:	ffb1 ffff ffb5 ffff 0004 0000 000e 0000     ................
   13a2c:	fe2a ffff fd8b ffff 00ca 0000 0107 0000     *...............
   13a3c:	fff1 ffff ffb3 ffff fff4 ffff 000c 0000     ................
   13a4c:	ff7e ffff fd3a ffff 0000 0000 0109 0000     ~...:...........
   13a5c:	002f 0000 ffc0 ffff ffe7 ffff 0008 0000     /...............
   13a6c:	00d8 0000 fd70 ffff ff3f ffff 00d9 0000     ....p...?.......
   13a7c:	0062 0000 ffd8 ffff ffdf ffff 0002 0000     b...............
   13a8c:	01f9 0000 fe1d ffff fead ffff 0084 0000     ................
   13a9c:	0080 0000 fff6 ffff ffde ffff fffd ffff     ................
   13aac:	02ae 0000 ff1b ffff fe60 ffff 001a 0000     ........`.......
   13abc:	0085 0000 0014 0000 ffe3 ffff fff8 ffff     ................
   13acc:	02da 0000 0034 0000 fe65 ffff ffb2 ffff     ....4...e.......
   13adc:	0071 0000 002d 0000 ffed ffff fff5 ffff     q...-...........
   13aec:	027d 0000 0137 0000 feb6 ffff ff5d ffff     }...7.......]...
   13afc:	0049 0000 003c 0000 fffb ffff fff4 ffff     I...<...........
   13b0c:	01af 0000 01f2 0000 ff3f ffff ff2b ffff     ........?...+...
   13b1c:	0015 0000 0040 0000 0007 0000 fff6 ffff     ....@...........
   13b2c:	009c 0000 0247 0000 ffe5 ffff ff23 ffff     ....G.......#...
   13b3c:	ffe1 ffff 0037 0000 0013 0000 fff9 ffff     ....7...........
   13b4c:	ff7b ffff 022d 0000 0087 0000 ff44 ffff     {...-.......D...
   13b5c:	ffb5 ffff 0025 0000 001a 0000 fffe ffff     ....%...........
   13b6c:	fe81 ffff 01ac 0000 0108 0000 ff86 ffff     ................
   13b7c:	ff99 ffff 000c 0000 001c 0000 0001 0000     ................
   13b8c:	fddb ffff 00e3 0000 0151 0000 ffdc ffff     ........Q.......
   13b9c:	ff91 ffff fff4 ffff 0019 0000 0006 0000     ................
   13bac:	fda3 ffff fffb ffff 0159 0000 0033 0000     ........Y...3...
   13bbc:	ff9f ffff ffde ffff 0011 0000 0008 0000     ................
   13bcc:	fdde ffff ff20 ffff 0120 0000 007d 0000     .... ... ...}...
   13bdc:	ffbe ffff ffd0 ffff 0006 0000 000a 0000     ................
   13bec:	fe7b ffff fe79 ffff 00b4 0000 00ac 0000     {...y...........
   13bfc:	ffe7 ffff ffcb ffff fffc ffff 0009 0000     ................
   13c0c:	ff57 ffff fe23 ffff 002d 0000 00b8 0000     W...#...-.......
   13c1c:	0012 0000 ffd1 ffff fff2 ffff 0006 0000     ................
   13c2c:	0047 0000 fe2a ffff ffa6 ffff 00a2 0000     G...*...........
   13c3c:	0039 0000 ffdf ffff ffeb ffff 0003 0000     9...............
   13c4c:	011e 0000 fe88 ffff ff35 ffff 006f 0000     ........5...o...
   13c5c:	0053 0000 fff3 ffff ffe9 ffff 0000 0000     S...............
   13c6c:	01b5 0000 ff26 ffff fef0 ffff 002a 0000     ....&.......*...
   13c7c:	005c 0000 0007 0000 ffeb ffff fffc ffff     \...............
   13c8c:	01f3 0000 ffe5 ffff fee1 ffff ffe2 ffff     ................
   13c9c:	0053 0000 0019 0000 fff1 ffff fff9 ffff     S...............
   13cac:	01d1 0000 009d 0000 ff07 ffff ffa2 ffff     ................
   13cbc:	003c 0000 0026 0000 fff9 ffff fff8 ffff     <...&...........
   13ccc:	015c 0000 0130 0000 ff5a ffff ff77 ffff     \...0...Z...w...
   13cdc:	001a 0000 002c 0000 0002 0000 fff9 ffff     ....,...........
   13cec:	00ab 0000 0183 0000 ffc8 ffff ff68 ffff     ............h...
   13cfc:	fff7 ffff 0028 0000 000a 0000 fffb ffff     ....(...........
   13d0c:	ffe6 ffff 018a 0000 0039 0000 ff75 ffff     ........9...u...
   13d1c:	ffd6 ffff 001e 0000 0011 0000 fffd ffff     ................
   13d2c:	ff2e ffff 0148 0000 009a 0000 ff9c ffff     ....H...........
   13d3c:	ffbe ffff 000e 0000 0013 0000 0000 0000     ................
   13d4c:	fea7 ffff 00cc 0000 00da 0000 ffd3 ffff     ................
   13d5c:	ffb5 ffff fffd ffff 0012 0000 0003 0000     ................
   13d6c:	fe67 ffff 0031 0000 00ee 0000 000f 0000     g...1...........
   13d7c:	ffb9 ffff ffed ffff 000e 0000 0005 0000     ................
   13d8c:	fe76 ffff ff96 ffff 00d5 0000 0046 0000     v...........F...
   13d9c:	ffcb ffff ffe2 ffff 0007 0000 0006 0000     ................
   13dac:	fecd ffff ff16 ffff 0096 0000 006d 0000     ............m...
   13dbc:	ffe6 ffff ffdc ffff 0000 0000 0006 0000     ................
   13dcc:	ff58 ffff fec8 ffff 003e 0000 007d 0000     X.......>...}...
   13ddc:	0003 0000 ffde ffff fff9 ffff 0005 0000     ................
   13dec:	fffc ffff feb7 ffff ffe0 ffff 0076 0000     ............v...
   13dfc:	001f 0000 ffe6 ffff fff3 ffff 0002 0000     ................
   13e0c:	0096 0000 fee5 ffff ff8c ffff 0059 0000     ............Y...
   13e1c:	0034 0000 fff2 ffff fff0 ffff 0000 0000     4...............
   13e2c:	010e 0000 ff44 ffff ff52 ffff 002d 0000     ....D...R...-...
   13e3c:	003e 0000 0000 0000 fff1 ffff fffe ffff     >...............
   13e4c:	014d 0000 ffc2 ffff ff3b ffff fffc ffff     M.......;.......
   13e5c:	003c 0000 000d 0000 fff4 ffff fffc ffff     <...............
   13e6c:	014c 0000 0043 0000 ff4a ffff ffcd ffff     L...C...J.......
   13e7c:	002f 0000 0018 0000 fffa ffff fffb ffff     /...............
   13e8c:	010d 0000 00b2 0000 ff7a ffff ffaa ffff     ........z.......
   13e9c:	001a 0000 001d 0000 0000 0000 fffb ffff     ................
   13eac:	009f 0000 00fb 0000 ffc0 ffff ff99 ffff     ................
   13ebc:	0001 0000 001d 0000 0005 0000 fffc ffff     ................
   13ecc:	001a 0000 0111 0000 000d 0000 ff9c ffff     ................
   13edc:	ffea ffff 0017 0000 000a 0000 fffe ffff     ................
   13eec:	ff98 ffff 00f3 0000 0055 0000 ffb2 ffff     ........U.......
   13efc:	ffd8 ffff 000d 0000 000d 0000 0000 0000     ................
   13f0c:	ff2f ffff 00aa 0000 0089 0000 ffd5 ffff     /...............
   13f1c:	ffce ffff 0001 0000 000d 0000 0001 0000     ................
   13f2c:	fef2 ffff 0045 0000 00a1 0000 fffe ffff     ....E...........
   13f3c:	ffce ffff fff7 ffff 000a 0000 0003 0000     ................
   13f4c:	feea ffff ffda ffff 009a 0000 0024 0000     ............$...
   13f5c:	ffd7 ffff ffee ffff 0006 0000 0004 0000     ................
   13f6c:	ff17 ffff ff7a ffff 0077 0000 0043 0000     ....z...w...C...
   13f7c:	ffe8 ffff ffe8 ffff 0001 0000 0004 0000     ................
   13f8c:	ff6c ffff ff38 ffff 003f 0000 0053 0000     l...8...?...S...
   13f9c:	fffc ffff ffe8 ffff fffd ffff 0003 0000     ................
   13fac:	ffd8 ffff ff1f ffff 0000 0000 0054 0000     ............T...
   13fbc:	000f 0000 ffec ffff fff8 ffff 0002 0000     ................
   13fcc:	0045 0000 ff31 ffff ffc3 ffff 0044 0000     E...1.......D...
   13fdc:	001f 0000 fff4 ffff fff6 ffff 0000 0000     ................
   13fec:	00a1 0000 ff68 ffff ff94 ffff 0029 0000     ....h.......)...
   13ffc:	0029 0000 fffd ffff fff5 ffff ffff ffff     )...............
   1400c:	00da 0000 ffb8 ffff ff7c ffff 0008 0000     ........|.......
   1401c:	002a 0000 0006 0000 fff7 ffff fffe ffff     *...............
   1402c:	00e7 0000 0011 0000 ff7e ffff ffe7 ffff     ........~.......
   1403c:	0023 0000 000e 0000 fffa ffff fffd ffff     #...............
   1404c:	00c9 0000 0063 0000 ff98 ffff ffcc ffff     ....c...........
   1405c:	0017 0000 0013 0000 ffff ffff fffd ffff     ................
   1406c:	0088 0000 009e 0000 ffc4 ffff ffbc ffff     ................
   1407c:	0006 0000 0014 0000 0002 0000 fffd ffff     ................
   1408c:	0030 0000 00b9 0000 fff8 ffff ffba ffff     0...............
   1409c:	fff6 ffff 0011 0000 0006 0000 fffe ffff     ................
   140ac:	ffd5 ffff 00b0 0000 002b 0000 ffc5 ffff     ........+.......
   140bc:	ffe8 ffff 000b 0000 0008 0000 0000 0000     ................
   140cc:	ff86 ffff 0087 0000 0054 0000 ffda ffff     ........T.......
   140dc:	ffdf ffff 0003 0000 0009 0000 0000 0000     ................
   140ec:	ff52 ffff 0047 0000 006b 0000 fff5 ffff     R...G...k.......
   140fc:	ffdd ffff fffc ffff 0008 0000 0001 0000     ................
   1410c:	ff40 ffff fffe ffff 006d 0000 0010 0000     @.......m.......
   1411c:	ffe2 ffff fff5 ffff 0005 0000 0002 0000     ................
   1412c:	ff53 ffff ffb8 ffff 005b 0000 0027 0000     S.......[...'...
   1413c:	ffeb ffff fff1 ffff 0002 0000 0003 0000     ................
   1414c:	ff86 ffff ff84 ffff 0038 0000 0036 0000     ........8...6...
   1415c:	fff9 ffff fff0 ffff ffff ffff 0002 0000     ................
   1416c:	ffcc ffff ff69 ffff 000d 0000 003a 0000     ....i.......:...
   1417c:	0006 0000 fff1 ffff fffc ffff 0002 0000     ................
   1418c:	0017 0000 ff6c ffff ffe3 ffff 0033 0000     ....l.......3...
   1419c:	0012 0000 fff6 ffff fffa ffff 0000 0000     ................
   141ac:	005b 0000 ff8a ffff ffc0 ffff 0023 0000     [...........#...
   141bc:	001a 0000 fffc ffff fff9 ffff 0000 0000     ................
   141cc:	008b 0000 ffbc ffff ffaa ffff 000d 0000     ................
   141dc:	001d 0000 0002 0000 fffa ffff ffff ffff     ................
   141ec:	009e 0000 fff8 ffff ffa5 ffff fff6 ffff     ................
   141fc:	001a 0000 0008 0000 fffc ffff fffe ffff     ................
   1420c:	0093 0000 0032 0000 ffb2 ffff ffe2 ffff     ....2...........
   1421c:	0012 0000 000c 0000 fffe ffff fffe ffff     ................
   1422c:	006d 0000 0061 0000 ffcc ffff ffd5 ffff     m...a...........
   1423c:	0008 0000 000e 0000 0000 0000 fffe ffff     ................
   1424c:	0035 0000 007b 0000 ffef ffff ffd0 ffff     5...{...........
   1425c:	fffd ffff 000c 0000 0003 0000 ffff ffff     ................
   1426c:	fff7 ffff 007d 0000 0012 0000 ffd4 ffff     ....}...........
   1427c:	fff3 ffff 0009 0000 0005 0000 0000 0000     ................
   1428c:	ffbd ffff 0067 0000 0031 0000 ffe1 ffff     ....g...1.......
   1429c:	ffeb ffff 0004 0000 0006 0000 0000 0000     ................
   142ac:	ff93 ffff 0040 0000 0045 0000 fff2 ffff     ....@...E.......
   142bc:	ffe8 ffff ffff ffff 0005 0000 0001 0000     ................
   142cc:	ff7e ffff 000f 0000 004b 0000 0005 0000     ~.......K.......
   142dc:	ffea ffff fffa ffff 0004 0000 0001 0000     ................
   142ec:	ff84 ffff ffde ffff 0043 0000 0016 0000     ........C.......
   142fc:	fff0 ffff fff7 ffff 0002 0000 0002 0000     ................
   1430c:	ff9f ffff ffb6 ffff 002f 0000 0022 0000     ......../..."...
   1431c:	fff8 ffff fff5 ffff 0000 0000 0002 0000     ................
   1432c:	ffcc ffff ff9d ffff 0013 0000 0027 0000     ............'...
   1433c:	0001 0000 fff6 ffff fffe ffff 0001 0000     ................
   1434c:	0000 0000 ff98 ffff fff6 ffff 0025 0000     ............%...
   1435c:	000a 0000 fff8 ffff fffc ffff 0000 0000     ................
   1436c:	0030 0000 ffa7 ffff ffdb ffff 001c 0000     0...............
   1437c:	0010 0000 fffc ffff fffb ffff 0000 0000     ................
   1438c:	0056 0000 ffc5 ffff ffc9 ffff 000e 0000     V...............
   1439c:	0013 0000 0000 0000 fffc ffff 0000 0000     ................
   143ac:	006a 0000 ffed ffff ffc2 ffff ffff ffff     j...............
   143bc:	0013 0000 0004 0000 fffd ffff ffff ffff     ................
   143cc:	0069 0000 0016 0000 ffc7 ffff fff0 ffff     i...............
   143dc:	000e 0000 0007 0000 fffe ffff ffff ffff     ................
   143ec:	0055 0000 0039 0000 ffd6 ffff ffe5 ffff     U...9...........
   143fc:	0008 0000 0009 0000 0000 0000 ffff ffff     ................
   1440c:	0032 0000 004f 0000 ffec ffff ffe0 ffff     2...O...........
   1441c:	0000 0000 0009 0000 0001 0000 ffff ffff     ................
   1442c:	0007 0000 0056 0000 0004 0000 ffe1 ffff     ....V...........
   1443c:	fff9 ffff 0007 0000 0003 0000 0000 0000     ................
   1444c:	ffdf ffff 004d 0000 001b 0000 ffe8 ffff     ....M...........
   1445c:	fff4 ffff 0004 0000 0004 0000 0000 0000     ................
   1446c:	ffbe ffff 0035 0000 002b 0000 fff3 ffff     ....5...+.......
   1447c:	fff0 ffff 0000 0000 0004 0000 0000 0000     ................
   1448c:	ffaa ffff 0015 0000 0033 0000 0000 0000     ........3.......
   1449c:	fff0 ffff fffd ffff 0003 0000 0001 0000     ................
   144ac:	ffa8 ffff fff4 ffff 0031 0000 000b 0000     ........1.......
   144bc:	fff3 ffff fffa ffff 0002 0000 0001 0000     ................
   144cc:	ffb7 ffff ffd5 ffff 0025 0000 0015 0000     ........%.......
   144dc:	fff9 ffff fff9 ffff 0000 0000 0001 0000     ................
   144ec:	ffd2 ffff ffc1 ffff 0013 0000 001a 0000     ................
   144fc:	ffff ffff fff9 ffff ffff ffff 0001 0000     ................
   1450c:	fff4 ffff ffb9 ffff 0000 0000 001a 0000     ................
   1451c:	0004 0000 fffa ffff fffe ffff 0000 0000     ................
   1452c:	0016 0000 ffbf ffff ffed ffff 0015 0000     ................
   1453c:	000a 0000 fffc ffff fffd ffff 0000 0000     ................
   1454c:	0033 0000 ffd0 ffff ffde ffff 000d 0000     3...............
   1455c:	000d 0000 0000 0000 fffd ffff 0000 0000     ................
   1456c:	0045 0000 ffea ffff ffd6 ffff 0002 0000     E...............
   1457c:	000d 0000 0002 0000 fffe ffff 0000 0000     ................
   1458c:	0049 0000 0005 0000 ffd7 ffff fff8 ffff     I...............
   1459c:	000b 0000 0004 0000 ffff ffff ffff ffff     ................
   145ac:	003f 0000 001f 0000 ffdf ffff fff0 ffff     ?...............
   145bc:	0007 0000 0006 0000 0000 0000 ffff ffff     ................
   145cc:	002a 0000 0032 0000 ffed ffff ffeb ffff     *...2...........
   145dc:	0002 0000 0006 0000 0000 0000 ffff ffff     ................
   145ec:	000f 0000 003a 0000 fffe ffff ffea ffff     ....:...........
   145fc:	fffd ffff 0005 0000 0001 0000 0000 0000     ................
   1460c:	fff2 ffff 0037 0000 000e 0000 ffee ffff     ....7...........
   1461c:	fff9 ffff 0003 0000 0002 0000 0000 0000     ................
   1462c:	ffd9 ffff 002a 0000 001a 0000 fff4 ffff     ....*...........
   1463c:	fff6 ffff 0001 0000 0002 0000 0000 0000     ................
   1464c:	ffc9 ffff 0016 0000 0022 0000 fffd ffff     ........".......
   1465c:	fff5 ffff ffff ffff 0002 0000 0000 0000     ................
   1466c:	ffc3 ffff ffff ffff 0022 0000 0005 0000     ........".......
   1467c:	fff7 ffff fffd ffff 0001 0000 0000 0000     ................
   1468c:	ffca ffff ffe9 ffff 001c 0000 000c 0000     ................
   1469c:	fffa ffff fffc ffff 0000 0000 0001 0000     ................
   146ac:	ffda ffff ffd9 ffff 0011 0000 0011 0000     ................
   146bc:	fffe ffff fffb ffff 0000 0000 0000 0000     ................
   146cc:	fff0 ffff ffd0 ffff 0004 0000 0012 0000     ................
   146dc:	0002 0000 fffc ffff ffff ffff 0000 0000     ................
   146ec:	0007 0000 ffd1 ffff fff7 ffff 0010 0000     ................
   146fc:	0005 0000 fffd ffff fffe ffff 0000 0000     ................
   1470c:	001d 0000 ffdb ffff ffec ffff 000b 0000     ................
   1471c:	0008 0000 ffff ffff fffe ffff 0000 0000     ................
   1472c:	002c 0000 ffeb ffff ffe5 ffff 0004 0000     ,...............
   1473c:	0009 0000 0000 0000 fffe ffff 0000 0000     ................
   1474c:	0032 0000 fffe ffff ffe4 ffff fffd ffff     2...............
   1475c:	0008 0000 0002 0000 ffff ffff 0000 0000     ................
   1476c:	002e 0000 0010 0000 ffe8 ffff fff7 ffff     ................
   1477c:	0005 0000 0003 0000 0000 0000 0000 0000     ................
   1478c:	0022 0000 001f 0000 fff0 ffff fff3 ffff     "...............
   1479c:	0002 0000 0004 0000 0000 0000 0000 0000     ................
   147ac:	0010 0000 0027 0000 fffb ffff fff1 ffff     ....'...........
   147bc:	ffff ffff 0004 0000 0001 0000 0000 0000     ................

000147cc <H_ACC_LUT3_111>:
   147cc:	ffa0 ffff 0056 0000 002d 0000 ffdb ffff     ....V...-.......
   147dc:	fffa ffff 000b 0000 ffff ffff 0000 0000     ................
   147ec:	ff85 ffff ffc4 ffff 004b 0000 000c 0000     ........K.......
   147fc:	ffe7 ffff 0001 0000 0005 0000 0000 0000     ................
   1480c:	002f 0000 ff7a ffff fff4 ffff 0033 0000     /...z.......3...
   1481c:	fffb ffff fff4 ffff 0003 0000 0000 0000     ................
   1482c:	00aa 0000 fffe ffff ffa0 ffff 000e 0000     ................
   1483c:	001a 0000 fff8 ffff fffd ffff 0001 0000     ................
   1484c:	0026 0000 009b 0000 ffda ffff ffcc ffff     &...............
   1485c:	0014 0000 0009 0000 fffb ffff 0000 0000     ................
   1486c:	ff4e ffff 0056 0000 005d 0000 ffd3 ffff     N...V...].......
   1487c:	ffec ffff 0010 0000 0001 0000 fffd ffff     ................
   1488c:	ff72 ffff ff79 ffff 005f 0000 0024 0000     r...y..._...$...
   1489c:	ffdc ffff fffe ffff 0008 0000 0000 0000     ................
   148ac:	0083 0000 ff4f ffff ffc8 ffff 0049 0000     ....O.......I...
   148bc:	0004 0000 ffec ffff 0003 0000 0002 0000     ................
   148cc:	00f0 0000 003e 0000 ff71 ffff fffe ffff     ....>...q.......
   148dc:	002d 0000 fff7 ffff fff7 ffff 0002 0000     -...............
   148ec:	ffe8 ffff 00f2 0000 fff5 ffff ffa9 ffff     ................
   148fc:	0013 0000 0014 0000 fff8 ffff ffff ffff     ................
   1490c:	fed8 ffff 003c 0000 00a1 0000 ffd4 ffff     ....<...........
   1491c:	ffd7 ffff 0014 0000 0005 0000 fffd ffff     ................
   1492c:	ff7a ffff ff04 ffff 0066 0000 004f 0000     z.......f...O...
   1493c:	ffd3 ffff fff4 ffff 000d 0000 0000 0000     ................
   1494c:	0111 0000 ff31 ffff ff7b ffff 005f 0000     ....1...{..._...
   1495c:	0017 0000 ffe2 ffff 0000 0000 0005 0000     ................
   1496c:	0132 0000 00b6 0000 ff3f ffff ffd8 ffff     2.......?.......
   1497c:	0043 0000 fffd ffff fff1 ffff 0002 0000     C...............
   1498c:	ff67 ffff 0159 0000 0033 0000 ff79 ffff     g...Y...3...y...
   1499c:	0008 0000 0023 0000 fff8 ffff fffd ffff     ....#...........
   149ac:	fe44 ffff ffe6 ffff 00ff 0000 ffe5 ffff     D...............
   149bc:	ffb7 ffff 0016 0000 000c 0000 fffb ffff     ................
   149cc:	ffc2 ffff fe5f ffff 0050 0000 0090 0000     ...._...P.......
   149dc:	ffce ffff ffe3 ffff 0011 0000 0002 0000     ................
   149ec:	01e7 0000 ff3a ffff ff00 ffff 006d 0000     ....:.......m...
   149fc:	003a 0000 ffd6 ffff fffa ffff 0007 0000     :...............
   14a0c:	0153 0000 017e 0000 ff16 ffff ff94 ffff     S...~...........
   14a1c:	005c 0000 000a 0000 ffe7 ffff 0001 0000     \...............
   14a2c:	fe7f ffff 01ba 0000 00ac 0000 ff42 ffff     ............B...
   14a3c:	ffed ffff 0038 0000 fff9 ffff fff8 ffff     ....8...........
   14a4c:	fd9e ffff ff31 ffff 0172 0000 0018 0000     ....1...r.......
   14a5c:	ff8a ffff 0011 0000 001a 0000 fffa ffff     ................
   14a6c:	0077 0000 fd88 ffff fffe ffff 00eb 0000     w...............
   14a7c:	ffd6 ffff ffc8 ffff 0015 0000 0005 0000     ................
   14a8c:	030d 0000 ff99 ffff fe4e ffff 0065 0000     ........N...e...
   14a9c:	0073 0000 ffcd ffff ffef ffff 000b 0000     s...............
   14aac:	011f 0000 02ae 0000 ff15 ffff ff23 ffff     ............#...
   14abc:	0070 0000 0025 0000 ffdc ffff ffff ffff     p...%...........
   14acc:	fd08 ffff 01f0 0000 017c 0000 ff10 ffff     ........|.......
   14adc:	ffb6 ffff 0052 0000 0001 0000 fff2 ffff     ....R...........
   14aec:	fd0f ffff fdeb ffff 01e7 0000 0082 0000     ................
   14afc:	ff52 ffff ffff ffff 002b 0000 fffa ffff     R.......+.......
   14b0c:	01df 0000 fc95 ffff ff4c ffff 0160 0000     ........L...`...
   14b1c:	fff8 ffff ffa0 ffff 0014 0000 000d 0000     ................
   14b2c:	047c 0000 0093 0000 fd63 ffff 0028 0000     |.......c...(...
   14b3c:	00c7 0000 ffcc ffff ffd9 ffff 000e 0000     ................
   14b4c:	0041 0000 0455 0000 ff65 ffff fe79 ffff     A...U...e...y...
   14b5c:	0075 0000 0054 0000 ffd2 ffff fff8 ffff     u...T...........
   14b6c:	fae0 ffff 01b2 0000 02be 0000 fefb ffff     ................
   14b7c:	ff57 ffff 006b 0000 0014 0000 ffea ffff     W...k...........
   14b8c:	fce6 ffff fbd8 ffff 0235 0000 013b 0000     ........5...;...
   14b9c:	ff18 ffff ffd9 ffff 0041 0000 ffff ffff     ........A.......
   14bac:	0450 0000 fbbc ffff fdff ffff 01e1 0000     P...............
   14bbc:	0049 0000 ff6c ffff 000c 0000 0019 0000     I...l...........
   14bcc:	0601 0000 028a 0000 fc4e ffff ff95 ffff     ........N.......
   14bdc:	0137 0000 ffde ffff ffba ffff 000f 0000     7...............
   14bec:	fe3a ffff 0666 0000 0055 0000 fd92 ffff     :...f...U.......
   14bfc:	0055 0000 009c 0000 ffcc ffff ffed ffff     U...............
   14c0c:	f7fb ffff 0086 0000 0485 0000 ff29 ffff     ............)...
   14c1c:	fec1 ffff 007d 0000 0035 0000 ffe1 ffff     ....}...5.......
   14c2c:	fdb1 ffff f8c7 ffff 0214 0000 0266 0000     ............f...
   14c3c:	feef ffff ff8e ffff 005c 0000 0007 0000     ........\.......
   14c4c:	0824 0000 fb70 ffff fbd7 ffff 024a 0000     $...p.......J...
   14c5c:	00e0 0000 ff2e ffff fff4 ffff 0027 0000     ............'...
   14c6c:	072a 0000 05f8 0000 fb48 ffff fe73 ffff     *.......H...s...
   14c7c:	01bd 0000 0013 0000 ff8c ffff 000d 0000     ................
   14c8c:	fa61 ffff 089e 0000 024d 0000 fc75 ffff     a.......M...u...
   14c9c:	ffed ffff 0101 0000 ffd1 ffff ffd9 ffff     ................
   14cac:	f487 ffff fdb6 ffff 06cb 0000 ffe5 ffff     ................
   14cbc:	fdeb ffff 0075 0000 006e 0000 ffdb ffff     ....u...n.......
   14ccc:	0053 0000 f4a5 ffff 0103 0000 041a 0000     S...............
   14cdc:	fef6 ffff ff12 ffff 0074 0000 0019 0000     ........t.......
   14cec:	0da0 0000 fc7d ffff f895 ffff 025e 0000     ....}.......^...
   14cfc:	01df 0000 fef4 ffff ffbe ffff 003a 0000     ............:...
   14d0c:	070b 0000 0b66 0000 fac4 ffff fc7b ffff     ....f.......{...
   14d1c:	0240 0000 0085 0000 ff53 ffff 0001 0000     @.......S.......
   14d2c:	f3de ffff 0a54 0000 05d8 0000 fb4c ffff     ....T.......L...
   14d3c:	ff07 ffff 0186 0000 ffef ffff ffbc ffff     ................
   14d4c:	f122 ffff f843 ffff 0955 0000 0191 0000     "...C...U.......
   14d5c:	fcd2 ffff 0039 0000 00c2 0000 ffda ffff     ....9...........
   14d6c:	0626 0000 efa8 ffff fe3a ffff 0664 0000     &.......:...d...
   14d7c:	ff67 ffff fe55 ffff 007f 0000 003b 0000     g...U.......;...
   14d8c:	14cd 0000 0033 0000 f40e ffff 01a6 0000     ....3...........
   14d9c:	036a 0000 fed3 ffff ff62 ffff 004e 0000     j.......b...N...
   14dac:	0412 0000 1353 0000 fb93 ffff f964 ffff     ....S.......d...
   14dbc:	0294 0000 014f 0000 ff13 ffff ffe6 ffff     ....O...........
   14dcc:	e9bb ffff 0a4a 0000 0ba4 0000 fa6f ffff     ....J.......o...
   14ddc:	fd67 ffff 021c 0000 0037 0000 ff95 ffff     g.......7.......
   14dec:	ef14 ffff eed8 ffff 0b95 0000 04b9 0000     ................
   14dfc:	fb88 ffff ffa0 ffff 0135 0000 ffe4 ffff     ........5.......
   14e0c:	1110 0000 ea79 ffff f8a3 ffff 0926 0000     ....y.......&...
   14e1c:	0097 0000 fd51 ffff 006a 0000 006e 0000     ....Q...j...n...
   14e2c:	1d5b 0000 0878 0000 ee4a ffff ff7c ffff     [...x...J...|...
   14e3c:	0593 0000 fef7 ffff fed1 ffff 005d 0000     ............]...
   14e4c:	fbef ffff 1e1e 0000 feed ffff f4f4 ffff     ................
   14e5c:	0261 0000 0291 0000 fede ffff ffb4 ffff     a...............
   14e6c:	daf3 ffff 06a2 0000 144a 0000 fa82 ffff     ........J.......
   14e7c:	fac9 ffff 02a0 0000 00c0 0000 ff69 ffff     ............i...
   14e8c:	f035 ffff e013 ffff 0c82 0000 09ef 0000     5...............
   14e9c:	fa58 ffff fe72 ffff 01bc 0000 0007 0000     X...r...........
   14eac:	230a 0000 e65a ffff ef13 ffff 0bef 0000     .#..Z...........
   14ebc:	02fa 0000 fc17 ffff 0011 0000 00b2 0000     ................
   14ecc:	2660 0000 1748 0000 e7e1 ffff faf8 ffff     `&..H...........
   14edc:	083d 0000 ffab ffff fe06 ffff 0057 0000     =...........W...
   14eec:	ec5c ffff 2b3c 0000 066e 0000 ef41 ffff     \...<+..n...A...
   14efc:	010e 0000 045c 0000 fedc ffff ff61 ffff     ....\.......a...
   14f0c:	c7df ffff fcf3 ffff 1fdb 0000 fc9b ffff     ................
   14f1c:	f701 ffff 02bc 0000 01ac 0000 ff47 ffff     ............G...
   14f2c:	f764 ffff cba5 ffff 0a4e 0000 119b 0000     d.......N.......
   14f3c:	f9e2 ffff fc6d ffff 0234 0000 0059 0000     ....m...4...Y...
   14f4c:	3cdf 0000 e606 ffff e0b9 ffff 0d9d 0000     .<..............
   14f5c:	071a 0000 faf1 ffff ff33 ffff 0106 0000     ........3.......
   14f6c:	2cca 0000 2e26 0000 e2ad ffff f31d ffff     .,..&...........
   14f7c:	0adc 0000 017f 0000 fd04 ffff 001c 0000     ................
   14f8c:	d33b ffff 3805 0000 13c8 0000 e95f ffff     ;....8......_...
   14f9c:	fd89 ffff 06aa 0000 ff6b ffff fed5 ffff     ........k.......
   14fac:	b32b ffff eaaa ffff 2c66 0000 02b8 0000     +.......f,......
   14fbc:	f22c ffff 01a7 0000 0344 0000 ff44 ffff     ,.......D...D...
   14fcc:	0722 0000 b4b5 ffff 0183 0000 1b57 0000     "...........W...
   14fdc:	fbcc ffff f8f1 ffff 0267 0000 010c 0000     ........g.......
   14fec:	5992 0000 eec5 ffff ceb2 ffff 0ae0 0000     .Y..............
   14ffc:	0e20 0000 fa64 ffff fd44 ffff 0182 0000      ...d...D.......
   1500c:	28ed 0000 49e4 0000 e517 ffff e5d2 ffff     .(...I..........
   1501c:	0c2a 0000 05b2 0000 fb80 ffff ff98 ffff     *...............
   1502c:	b5bc ffff 37e6 0000 2a55 0000 e647 ffff     .....7..U*..G...
   1503c:	f512 ffff 0a1b 0000 00c6 0000 fdf2 ffff     ................
   1504c:	b265 ffff ca1e ffff 32b3 0000 12ac 0000     e........2......
   1505c:	eafd ffff fec8 ffff 05e3 0000 ff5d ffff     ............]...
   1506c:	2d50 0000 ac31 ffff e594 ffff 2986 0000     P-..1........)..
   1507c:	0176 0000 f318 ffff 0256 0000 0232 0000     v.......V...2...
   1508c:	60d5 0000 1e68 0000 b515 ffff 0056 0000     .`..h.......V...
   1509c:	1a15 0000 fa52 ffff fa04 ffff 0218 0000     ....R...........
   150ac:	df68 ffff 761c 0000 f8df ffff ced2 ffff     h....v..........
   150bc:	0c78 0000 0cc4 0000 f988 ffff fe82 ffff     x...............
   150cc:	620e ffff 1296 0000 555d 0000 e5fd ffff     .b......]U......
   150dc:	e6e2 ffff 0e8d 0000 039b 0000 fc64 ffff     ............d...
   150ec:	c899 ffff 731b ffff 3114 0000 2e5d 0000     .....s...1..]...
   150fc:	e25c ffff f8be ffff 0a81 0000 ff89 ffff     \...............
   1510c:	9da5 0000 9e4a ffff ab85 ffff 385d 0000     ....J.......]8..
   1511c:	0e34 0000 e919 ffff 0261 0000 045b 0000     4.......a...[...
   1512c:	8cab 0000 7e06 0000 935a ffff e2cd ffff     .....~..Z.......
   1513c:	2d8b 0000 fa5f ffff f42a ffff 03f2 0000     .-.._...*.......
   1514c:	781d ffff bbbb 0000 31e6 0000 a568 ffff     .x.......1..h...
   1515c:	0907 0000 195b 0000 f3d0 ffff fda5 ffff     ....[...........
   1516c:	03e3 ffff b9e0 ffff aa21 0000 f05a ffff     ........!...Z...
   1517c:	c942 ffff 196c 0000 04ac 0000 f882 ffff     B...l...........
   1518c:	3998 0000 dd1e fffe 1cb2 0000 714f 0000     .9..........Oq..
   1519c:	ccb5 ffff f2b5 ffff 134b 0000 f9e4 ffff     ........K.......
   151ac:	7d3d 0001 c51e ffff 210b ffff 640e 0000     =}.......!...d..
   151bc:	2353 0000 d183 ffff 0f8d 0000 fe6d ffff     S#..........m...
   151cc:	6fc7 0000 8ca7 0001 42a9 ffff a622 ffff     .o.......B.."...
   151dc:	6bf3 0000 db7c ffff 0243 0000 ffb3 ffff     .k..|...C.......
   151ec:	e1be fffd 521c 0001 d7f6 0000 085e ffff     .....R......^...
   151fc:	52b6 0000 fcb3 ffff fe77 ffff fdce ffff     .R......w.......
   1520c:	08fd fffe 220e fffe 3229 0002 4638 ffff     ....."..)2..8F..
   1521c:	034d 0000 077a 0000 04f8 0000 fe06 ffff     M...z...........
   1522c:	6ce3 0003 182e fffb a52c 0001 035c 0000     .l......,...\...
   1523c:	e715 ffff f75c ffff 060f 0000 0143 0000     ....\.......C...
   1524c:	a432 000a 1ca4 fffc dc9b ffff 4b2d 0000     2...........-K..
   1525c:	0d92 0000 f157 ffff fd54 ffff 0260 0000     ....W...T...`...
   1526c:	2117 000d e1bc 0000 27a6 ffff ebf2 ffff     .!.......'......
   1527c:	2276 0000 03b8 0000 f914 ffff ff65 ffff     v"..........e...
   1528c:	73ef 0008 c73a 0004 73e4 0000 b5d3 ffff     .s..:....s......
   1529c:	fdd4 ffff 0fca 0000 009e 0000 fd77 ffff     ............w...
   152ac:	219c 0001 32cb 0004 0e47 0002 39d1 0000     .!...2..G....9..
   152bc:	e6ed ffff 025a 0000 0712 0000 ffe0 ffff     ....Z...........
   152cc:	6c2a fffd 990e 0000 e881 0001 e75b 0000     *l..........[...
   152dc:	1cb0 0000 f811 ffff 0293 0000 0284 0000     ................
   152ec:	ab42 fffe 3c8f fffe 3ab4 0000 d6b2 0000     B....<...:......
   152fc:	660a 0000 0dd0 0000 fe16 ffff 0189 0000     .f..............
   1530c:	1704 0001 f765 fffe 067c ffff 10a8 0000     ....e...|.......
   1531c:	5c9e 0000 2c9e 0000 066a 0000 0030 0000     .\...,..j...0...
   1532c:	3d66 0001 bd70 0000 6809 ffff 7fb2 ffff     f=..p....h......
   1533c:	01ce 0000 2759 0000 12ce 0000 02f9 0000     ....Y'..........
   1534c:	aee9 ffff ff41 0000 68c2 0000 b2ea ffff     ....A....h......
   1535c:	c04c ffff fe2e ffff 101a 0000 0742 0000     L...........B...
   1536c:	fc40 fffe d9bf ffff 9970 0000 3745 0000     @.......p...E7..
   1537c:	db5a ffff e160 ffff fe13 ffff 0666 0000     Z...`.......f...
   1538c:	dc1b ffff 32be ffff f1ca ffff 52ac 0000     .....2.......R..
   1539c:	1c72 0000 ef92 ffff f19a ffff fff5 ffff     r...............
   153ac:	b937 0000 cdcc ffff 8459 ffff fb38 ffff     7.......Y...8...
   153bc:	2963 0000 0ee8 0000 f843 ffff fb17 ffff     c)......C.......
   153cc:	6071 0000 8e74 0000 d6da ffff be8a ffff     q`..t...........
   153dc:	fce6 ffff 14be 0000 06ac 0000 fcf8 ffff     ................
   153ec:	8ba9 ffff 6364 0000 4f02 0000 e88a ffff     ....dc...O......
   153fc:	dd7e ffff feb2 ffff 099f 0000 0208 0000     ~...............
   1540c:	7913 ffff b8c6 ffff 3f0f 0000 2b47 0000     .y.......?..G+..
   1541c:	f297 ffff eee8 ffff ffb4 ffff 036e 0000     ............n...
   1542c:	186c 0000 95c7 ffff d74f ffff 25ea 0000     l.......O....%..
   1543c:	15d8 0000 f8e9 ffff f843 ffff 0026 0000     ........C...&...
   1544c:	6431 0000 10a3 0000 b98e ffff ec60 ffff     1d..........`...
   1545c:	14ca 0000 0a6c 0000 fc88 ffff fd5f ffff     ....l......._...
   1546c:	0095 0000 5be5 0000 0379 0000 d741 ffff     .....[..y...A...
   1547c:	f751 ffff 0a80 0000 048f 0000 fea0 ffff     Q...............
   1548c:	a06e ffff 10f5 0000 3b91 0000 fdb9 ffff     n........;......
   1549c:	eaba ffff fc38 ffff 04e3 0000 0174 0000     ....8.......t...
   154ac:	d7bb ffff b244 ffff 14b6 0000 2050 0000     ....D.......P ..
   154bc:	fd54 ffff f592 ffff fe7e ffff 01c6 0000     T.......~.......
   154cc:	4866 0000 cde9 ffff d43f ffff 0f54 0000     fH......?...T...
   154dc:	1014 0000 fe44 ffff fb44 ffff ff9c ffff     ....D...D.......
   154ec:	490a 0000 2fa6 0000 da35 ffff ead8 ffff     .I.../..5.......
   154fc:	0901 0000 07ab 0000 ff08 ffff fe5a ffff     ............Z...
   1550c:	e2af ffff 4441 0000 1582 0000 e972 ffff     ....AD......r...
   1551c:	f649 ffff 04b2 0000 0365 0000 ff8b ffff     I.......e.......
   1552c:	b019 ffff f6fb ffff 2b8e 0000 084f 0000     .........+..O...
   1553c:	f419 ffff fb9b ffff 0241 0000 011f 0000     ........A.......
   1554c:	f1da ffff bf83 ffff 01e4 0000 1783 0000     ................
   1555c:	031b 0000 fa1f ffff fe27 ffff 00da 0000     ........'.......
   1556c:	3e81 0000 e83c ffff daed ffff 03bc 0000     .>..<...........
   1557c:	0bb7 0000 012f 0000 fd4f ffff ff70 ffff     ..../...O...p...
   1558c:	2b05 0000 2c24 0000 ec89 ffff ed58 ffff     .+..$,......X...
   1559c:	02b1 0000 0596 0000 0066 0000 ff0b ffff     ........f.......
   155ac:	df7d ffff 29d8 0000 16a2 0000 f3ef ffff     }....)..........
   155bc:	f71c ffff 0183 0000 027d 0000 0010 0000     ........}.......
   155cc:	cb9c ffff ee6b ffff 1b95 0000 0a59 0000     ....k.......Y...
   155dc:	f984 ffff fbde ffff 00c6 0000 00da 0000     ................
   155ec:	028e 0000 d3de ffff f9d5 ffff 0f46 0000     ............F...
   155fc:	049d 0000 fcc6 ffff fe34 ffff 0053 0000     ........4...S...
   1560c:	2dcd 0000 f9e2 ffff e58b ffff fe61 ffff     .-..........a...
   1561c:	07c0 0000 020f 0000 fe7f ffff ff6a ffff     ............j...
   1562c:	13b8 0000 2292 0000 f8b5 ffff f22f ffff     ....."....../...
   1563c:	ffb2 ffff 03bf 0000 00da 0000 ff73 ffff     ............s...
   1564c:	e2a5 ffff 1592 0000 130d 0000 fadc ffff     ................
   1565c:	f937 ffff fffe ffff 01b1 0000 0040 0000     7...........@...
   1566c:	e184 ffff ecec ffff 0f2d 0000 095b 0000     ........-...[...
   1567c:	fd11 ffff fcc8 ffff 000f 0000 0098 0000     ................
   1568c:	0a7b 0000 e4cf ffff f6f8 ffff 08c7 0000     {...............
   1569c:	046a 0000 fe7f ffff fe93 ffff 0010 0000     j...............
   156ac:	1e9b 0000 0371 0000 eee6 ffff fc2a ffff     ....q.......*...
   156bc:	0495 0000 020a 0000 ff47 ffff ff85 ffff     ........G.......
   156cc:	0556 0000 189a 0000 ffad ffff f6bd ffff     V...............
   156dc:	fe64 ffff 0240 0000 00e1 0000 ffb9 ffff     d...@...........
   156ec:	e894 ffff 087e 0000 0e5a 0000 feee ffff     ....~...Z.......
   156fc:	fb58 ffff ff51 ffff 0108 0000 0046 0000     X...Q.......F...
   1570c:	f0aa ffff ef15 ffff 06f3 0000 075e 0000     ............^...
   1571c:	ff2f ffff fdc3 ffff ffbd ffff 005f 0000     /..........._...
   1572c:	0cca 0000 f0f5 ffff f70b ffff 0458 0000     ............X...
   1573c:	0393 0000 ff88 ffff feff ffff fff0 ffff     ................
   1574c:	12f3 0000 076b 0000 f5f0 ffff fbc4 ffff     ....k...........
   1575c:	025d 0000 01af 0000 ffc1 ffff ffa8 ffff     ]...............
   1576c:	fddf ffff 103c 0000 02f3 0000 fa55 ffff     ....<.......U...
   1577c:	fe11 ffff 012f 0000 00bc 0000 ffe4 ffff     ..../...........
   1578c:	eee0 ffff 0135 0000 09ee 0000 00f8 0000     ....5...........
   1579c:	fd17 ffff ff20 ffff 008e 0000 003e 0000     .... .......>...
   157ac:	f9df ffff f2ba ffff 0219 0000 0545 0000     ............E...
   157bc:	004a 0000 fe95 ffff ffa3 ffff 0033 0000     J...........3...
   157cc:	0bc2 0000 f8cf ffff f884 ffff 01a0 0000     ................
   157dc:	029c 0000 0015 0000 ff5c ffff ffe5 ffff     ........\.......
   157ec:	0ab2 0000 07f8 0000 fabb ffff fc45 ffff     ............E...
   157fc:	00f7 0000 013e 0000 0002 0000 ffc7 ffff     ....>...........
   1580c:	faf1 ffff 09d9 0000 03ed 0000 fce1 ffff     ................
   1581c:	fe3b ffff 0081 0000 008d 0000 fffe ffff     ;...............
   1582c:	f485 ffff fdc9 ffff 0652 0000 01b8 0000     ........R.......
   1583c:	fe5b ffff ff2f ffff 003f 0000 002f 0000     [.../...?.../...
   1584c:	fef7 ffff f692 ffff ff99 ffff 0376 0000     ............v...
   1585c:	00bf 0000 ff30 ffff ffa6 ffff 0017 0000     ....0...........
   1586c:	0950 0000 fd7e ffff fa6c ffff 0024 0000     P...~...l...$...
   1587c:	01c0 0000 0052 0000 ffa1 ffff ffe5 ffff     ....R...........
   1588c:	053a 0000 06df 0000 fdbe ffff fd1e ffff     :...............
   1589c:	002f 0000 00d8 0000 0021 0000 ffde ffff     /.......!.......
   158ac:	fa81 ffff 0558 0000 03b4 0000 fe89 ffff     ....X...........
   158bc:	fe99 ffff 001e 0000 0060 0000 0009 0000     ........`.......
   158cc:	f8fa ffff fca3 ffff 03a6 0000 01c6 0000     ................
   158dc:	ff31 ffff ff57 ffff 0011 0000 0021 0000     1...W.......!...
   158ec:	0168 0000 f9e0 ffff fe8c ffff 0213 0000     h...............
   158fc:	00d1 0000 ff98 ffff ffb7 ffff 0008 0000     ................
   1590c:	06a4 0000 0002 0000 fc36 ffff ff74 ffff     ........6...t...
   1591c:	0112 0000 005e 0000 ffd0 ffff ffe8 ffff     ....^...........
   1592c:	01e7 0000 053a 0000 ff79 ffff fdfa ffff     ....:...y.......
   1593c:	ffce ffff 0085 0000 0027 0000 ffee ffff     ........'.......
   1594c:	fb3a ffff 026d 0000 02fa 0000 ff85 ffff     :...m...........
   1595c:	fefe ffff ffed ffff 003b 0000 000b 0000     ........;.......
   1596c:	fc28 ffff fcb0 ffff 01d7 0000 017f 0000     (...............
   1597c:	ffb3 ffff ff86 ffff fffb ffff 0014 0000     ................
   1598c:	0245 0000 fc62 ffff fe53 ffff 011c 0000     E...b...S.......
   1599c:	00b7 0000 ffd7 ffff ffca ffff 0000 0000     ................
   159ac:	0456 0000 0123 0000 fda7 ffff ff3e ffff     V...#.......>...
   159bc:	0096 0000 0055 0000 ffeb ffff ffef ffff     ....U...........
   159cc:	0016 0000 039c 0000 0056 0000 feb4 ffff     ........V.......
   159dc:	ffaa ffff 004a 0000 0024 0000 fff9 ffff     ....J...$.......
   159ec:	fc59 ffff 00b7 0000 0229 0000 000a 0000     Y.......).......
   159fc:	ff57 ffff ffdb ffff 0021 0000 000b 0000     W.......!.......
   15a0c:	fe3a ffff fd42 ffff 00b9 0000 0121 0000     :...B.......!...
   15a1c:	fffb ffff ffaf ffff fff1 ffff 000b 0000     ................
   15a2c:	0247 0000 fe1e ffff fe81 ffff 007b 0000     G...........{...
   15a3c:	008c 0000 fffb ffff ffdc ffff fffc ffff     ................
   15a4c:	0293 0000 0174 0000 feb0 ffff ff46 ffff     ....t.......F...
   15a5c:	0045 0000 0042 0000 fffc ffff fff5 ffff     E...B...........
   15a6c:	ff42 ffff 0248 0000 00a9 0000 ff3f ffff     B...H.......?...
   15a7c:	ffa9 ffff 0023 0000 001d 0000 ffff ffff     ....#...........
   15a8c:	fd76 ffff ffd4 ffff 016e 0000 0045 0000     v.......n...E...
   15a9c:	ff9c ffff ffd9 ffff 0010 0000 0008 0000     ................
   15aac:	ff73 ffff fdf9 ffff 0019 0000 00c5 0000     s...............
   15abc:	001c 0000 ffd0 ffff fff0 ffff 0005 0000     ................
   15acc:	01e8 0000 ff34 ffff fed4 ffff 0021 0000     ....4.......!...
   15adc:	0062 0000 000c 0000 ffea ffff fffd ffff     b...............
   15aec:	015b 0000 015b 0000 ff60 ffff ff69 ffff     [...[...`...i...
   15afc:	0016 0000 002e 0000 0003 0000 fff9 ffff     ................
   15b0c:	ff03 ffff 014e 0000 00b3 0000 ff9d ffff     ....N...........
   15b1c:	ffb7 ffff 000c 0000 0013 0000 0001 0000     ................
   15b2c:	fe62 ffff ff75 ffff 00dd 0000 0053 0000     b...u.......S...
   15b3c:	ffcc ffff ffde ffff 0006 0000 0006 0000     ................
   15b4c:	0017 0000 fea1 ffff ffce ffff 007b 0000     ............{...
   15b5c:	0025 0000 ffe7 ffff fff2 ffff 0001 0000     %...............
   15b6c:	016b 0000 ffd3 ffff ff2d ffff fff3 ffff     k.......-.......
   15b7c:	003e 0000 0010 0000 fff5 ffff fffc ffff     >...............
   15b8c:	0095 0000 0115 0000 ffc8 ffff ff92 ffff     ................
   15b9c:	fffd ffff 001d 0000 0006 0000 fffd ffff     ................
   15bac:	ff10 ffff 00a7 0000 009a 0000 ffd7 ffff     ................
   15bbc:	ffca ffff 0000 0000 000c 0000 0001 0000     ................
   15bcc:	ff10 ffff ff62 ffff 0077 0000 004b 0000     ....b...w...K...
   15bdc:	ffea ffff ffe7 ffff 0001 0000 0003 0000     ................
   15bec:	005c 0000 ff28 ffff ffb6 ffff 0044 0000     \...(.......D...
   15bfc:	0023 0000 fff5 ffff fff5 ffff 0000 0000     #...............
   15c0c:	00f7 0000 0022 0000 ff77 ffff ffe0 ffff     ...."...w.......
   15c1c:	0024 0000 0010 0000 fffb ffff fffd ffff     $...............
   15c2c:	0024 0000 00c7 0000 0000 0000 ffb7 ffff     $...............
   15c3c:	fff3 ffff 0011 0000 0006 0000 ffff ffff     ................
   15c4c:	ff3f ffff 0041 0000 0075 0000 fff9 ffff     ?...A...u.......
   15c5c:	ffdb ffff fffa ffff 0006 0000 0001 0000     ................
   15c6c:	ff88 ffff ff75 ffff 0036 0000 003b 0000     ....u...6...;...
   15c7c:	fffa ffff ffef ffff ffff ffff 0002 0000     ................
   15c8c:	006c 0000 ff89 ffff ffb6 ffff 0021 0000     l...........!...
   15c9c:	001c 0000 fffd ffff fffa ffff 0000 0000     ................
   15cac:	0099 0000 003f 0000 ffb1 ffff ffde ffff     ....?...........
   15cbc:	0011 0000 000c 0000 ffff ffff ffff ffff     ................
   15ccc:	ffec ffff 0084 0000 0019 0000 ffd3 ffff     ................
   15cdc:	fff1 ffff 0008 0000 0005 0000 0000 0000     ................
   15cec:	ff74 ffff 0007 0000 004f 0000 0008 0000     t.......O.......
   15cfc:	ffea ffff fffb ffff 0003 0000 0000 0000     ................
   15d0c:	ffce ffff ffba ffff 0015 0000 001c 0000     ................
   15d1c:	ffff ffff fff8 ffff ffff ffff 0000 0000     ................

00015d2c <H_ACC_LUT3_110>:
   15d2c:	fffc ffff 0036 0000 fffd ffff ffed ffff     ....6...........
   15d3c:	0004 0000 0005 0000 ffff ffff 0000 0000     ................
   15d4c:	ffbf ffff 000e 0000 0023 0000 fff6 ffff     ........#.......
   15d5c:	fff7 ffff 0003 0000 0001 0000 0000 0000     ................
   15d6c:	ffe3 ffff ffc8 ffff 0016 0000 0011 0000     ................
   15d7c:	fff7 ffff fffe ffff 0003 0000 0000 0000     ................
   15d8c:	003c 0000 ffd2 ffff ffe4 ffff 0014 0000     <...............
   15d9c:	0004 0000 fffa ffff 0001 0000 0001 0000     ................
   15dac:	0044 0000 0027 0000 ffd6 ffff fff8 ffff     D...'...........
   15dbc:	000e 0000 ffff ffff fffd ffff 0000 0000     ................
   15dcc:	ffe0 ffff 004c 0000 000b 0000 ffe3 ffff     ....L...........
   15ddc:	0002 0000 0008 0000 ffff ffff ffff ffff     ................
   15dec:	ff9e ffff fffb ffff 0039 0000 fffa ffff     ........9.......
   15dfc:	fff0 ffff 0006 0000 0002 0000 0000 0000     ................
   15e0c:	fff1 ffff ffa5 ffff 0012 0000 001f 0000     ................
   15e1c:	fff6 ffff fffa ffff 0003 0000 0000 0000     ................
   15e2c:	006c 0000 ffd4 ffff ffc7 ffff 0018 0000     l...............
   15e3c:	000d 0000 fff7 ffff ffff ffff 0002 0000     ................
   15e4c:	004c 0000 0054 0000 ffcd ffff ffe9 ffff     L...T...........
   15e5c:	0013 0000 0002 0000 fffa ffff 0001 0000     ................
   15e6c:	ffac ffff 0062 0000 0025 0000 ffd6 ffff     ....b...%.......
   15e7c:	fffd ffff 000c 0000 ffff ffff ffff ffff     ................
   15e8c:	ff7a ffff ffd4 ffff 0052 0000 0005 0000     z.......R.......
   15e9c:	ffe7 ffff 0004 0000 0005 0000 0000 0000     ................
   15eac:	0019 0000 ff75 ffff 0001 0000 0033 0000     ....u.......3...
   15ebc:	fff7 ffff fff4 ffff 0004 0000 0001 0000     ................
   15ecc:	00ac 0000 ffe8 ffff ffa1 ffff 0016 0000     ................
   15edc:	0019 0000 fff5 ffff fffd ffff 0002 0000     ................
   15eec:	0041 0000 0097 0000 ffcb ffff ffcf ffff     A...............
   15efc:	0018 0000 0007 0000 fff8 ffff 0001 0000     ................
   15f0c:	ff5a ffff 006e 0000 0053 0000 ffcb ffff     Z...n...S.......
   15f1c:	fff1 ffff 0012 0000 0000 0000 fffd ffff     ................
   15f2c:	ff5a ffff ff8d ffff 006a 0000 001c 0000     Z.......j.......
   15f3c:	ffda ffff 0001 0000 0009 0000 fffe ffff     ................
   15f4c:	0067 0000 ff3e ffff ffda ffff 004d 0000     g...>.......M...
   15f5c:	fffe ffff ffec ffff 0004 0000 0003 0000     ................
   15f6c:	00fd 0000 001e 0000 ff6c ffff 000a 0000     ........l.......
   15f7c:	002c 0000 fff4 ffff fff7 ffff 0001 0000     ,...............
   15f8c:	0011 0000 00f4 0000 ffdc ffff ffaa ffff     ................
   15f9c:	001b 0000 0012 0000 fff7 ffff fffe ffff     ................
   15fac:	fee0 ffff 0061 0000 009a 0000 ffc6 ffff     ....a...........
   15fbc:	ffdc ffff 0017 0000 0004 0000 fffc ffff     ................
   15fcc:	ff4f ffff ff18 ffff 007c 0000 0045 0000     O.......|...E...
   15fdc:	ffce ffff fff8 ffff 000f 0000 ffff ffff     ................
   15fec:	00f1 0000 ff0f ffff ff90 ffff 0069 0000     ............i...
   15ffc:	000f 0000 ffdf ffff 0003 0000 0005 0000     ................
   1600c:	0153 0000 008c 0000 ff2f ffff ffeb ffff     S......./.......
   1601c:	0044 0000 fff7 ffff fff0 ffff 0003 0000     D...............
   1602c:	ffa0 ffff 016a 0000 0010 0000 ff76 ffff     ....j.......v...
   1603c:	0014 0000 0022 0000 fff5 ffff fffc ffff     ...."...........
   1604c:	fe3b ffff 0021 0000 00ff 0000 ffd0 ffff     ;...!...........
   1605c:	ffba ffff 001b 0000 000b 0000 fffa ffff     ................
   1606c:	ff79 ffff fe69 ffff 0078 0000 0086 0000     y...i...x.......
   1607c:	ffc4 ffff ffe8 ffff 0014 0000 0001 0000     ................
   1608c:	01ca 0000 fefb ffff ff17 ffff 0082 0000     ................
   1609c:	0031 0000 ffd2 ffff fffd ffff 0008 0000     1...............
   160ac:	0197 0000 014f 0000 fef5 ffff ffa9 ffff     ....O...........
   160bc:	0063 0000 0004 0000 ffe6 ffff 0002 0000     c...............
   160cc:	fec6 ffff 01e8 0000 0080 0000 ff37 ffff     ............7...
   160dc:	fffd ffff 0039 0000 fff6 ffff fff8 ffff     ....9...........
   160ec:	fd74 ffff ff84 ffff 0181 0000 fff7 ffff     t...............
   160fc:	ff8a ffff 001b 0000 0017 0000 fff9 ffff     ................
   1610c:	000c 0000 fd7c ffff 003f 0000 00e7 0000     ....|...?.......
   1611c:	ffc5 ffff ffcc ffff 0018 0000 0005 0000     ................
   1612c:	0303 0000 ff32 ffff fe5e ffff 0089 0000     ....2...^.......
   1613c:	0069 0000 ffc6 ffff fff2 ffff 000d 0000     i...............
   1614c:	0198 0000 0282 0000 fed3 ffff ff3c ffff     ............<...
   1615c:	007f 0000 001c 0000 ffda ffff 0001 0000     ................
   1616c:	fd57 ffff 0250 0000 0145 0000 fef5 ffff     W...P...E.......
   1617c:	ffcb ffff 0055 0000 fffb ffff fff1 ffff     ....U...........
   1618c:	fcad ffff fe53 ffff 0214 0000 0054 0000     ....S.......T...
   1619c:	ff4d ffff 000e 0000 002a 0000 fff7 ffff     M.......*.......
   161ac:	014c 0000 fc5e ffff ffa5 ffff 0168 0000     L...^.......h...
   161bc:	ffdc ffff ffa2 ffff 001c 0000 000d 0000     ................
   161cc:	049e 0000 fffa ffff fd5e ffff 0063 0000     ........^...c...
   161dc:	00bf 0000 ffbd ffff ffde ffff 000f 0000     ................
   161ec:	0101 0000 0440 0000 fefb ffff fe8f ffff     ....@...........
   161fc:	0093 0000 0049 0000 ffcd ffff fffb ffff     ....I...........
   1620c:	fb23 ffff 025a 0000 0287 0000 fec5 ffff     #...Z...........
   1621c:	ff71 ffff 0075 0000 000c 0000 ffe9 ffff     q...u...........
   1622c:	fc2b ffff fc4d ffff 0293 0000 0104 0000     +...M...........
   1623c:	ff06 ffff ffec ffff 0044 0000 fff9 ffff     ........D.......
   1624c:	039c 0000 fb3b ffff fe71 ffff 0202 0000     ....;...q.......
   1625c:	001f 0000 ff6a ffff 0016 0000 0018 0000     ....j...........
   1626c:	0675 0000 01ba 0000 fc20 ffff ffe9 ffff     u....... .......
   1627c:	0138 0000 ffc7 ffff ffbd ffff 0013 0000     8...............
   1628c:	ff4a ffff 068c 0000 ffb6 ffff fd98 ffff     J...............
   1629c:	0085 0000 0092 0000 ffc1 ffff fff0 ffff     ................
   162ac:	f80a ffff 018b 0000 0465 0000 fecb ffff     ........e.......
   162bc:	feda ffff 0093 0000 002c 0000 ffde ffff     ........,.......
   162cc:	fc80 ffff f928 ffff 02bc 0000 022c 0000     ....(.......,...
   162dc:	fec3 ffff ffa7 ffff 0063 0000 0001 0000     ........c.......
   162ec:	0773 0000 fa77 ffff fc54 ffff 029a 0000     s...w...T.......
   162fc:	00ac 0000 ff21 ffff 0004 0000 0028 0000     ....!.......(...
   1630c:	0828 0000 0507 0000 fac9 ffff fee0 ffff     (...............
   1631c:	01d4 0000 ffef ffff ff8d ffff 0014 0000     ................
   1632c:	fbaf ffff 0940 0000 0178 0000 fc51 ffff     ....@...x...Q...
   1633c:	0037 0000 00fe 0000 ffbd ffff ffdb ffff     7...............
   1634c:	f408 ffff ff22 ffff 06f3 0000 ff4d ffff     ....".......M...
   1635c:	fdf8 ffff 00a0 0000 0061 0000 ffd6 ffff     ........a.......
   1636c:	fe90 ffff f49d ffff 0215 0000 03f4 0000     ................
   1637c:	fea1 ffff ff2f ffff 0084 0000 0012 0000     ..../...........
   1638c:	0d5b 0000 faca ffff f8f4 ffff 02fe 0000     [...............
   1639c:	01a1 0000 fed3 ffff ffd7 ffff 003d 0000     ............=...
   163ac:	0907 0000 0a96 0000 f9ad ffff fd00 ffff     ................
   163bc:	0281 0000 004d 0000 ff4e ffff 000c 0000     ....M...N.......
   163cc:	f52d ffff 0bfe 0000 04d0 0000 fad4 ffff     -...............
   163dc:	ff79 ffff 018c 0000 ffce ffff ffbf ffff     y...............
   163ec:	ef4f ffff fa25 ffff 0a1e 0000 00ab 0000     O...%...........
   163fc:	fcc6 ffff 007e 0000 00b4 0000 ffcf ffff     ....~...........
   1640c:	0380 0000 ee94 ffff fff3 ffff 066f 0000     ............o...
   1641c:	fed8 ffff fe77 ffff 009b 0000 0030 0000     ....w.......0...
   1642c:	15b0 0000 fd2e ffff f415 ffff 02c6 0000     ................
   1643c:	0321 0000 fe97 ffff ff82 ffff 0053 0000     !...........S...
   1644c:	0810 0000 12ee 0000 f970 ffff fa01 ffff     ........p.......
   1645c:	0310 0000 0104 0000 ff08 ffff fff5 ffff     ................
   1646c:	eb0d ffff 0de9 0000 0a51 0000 f973 ffff     ........Q...s...
   1647c:	fe09 ffff 0230 0000 000c 0000 ff99 ffff     ....0...........
   1648c:	eac4 ffff f1a1 ffff 0d6c 0000 035f 0000     ........l..._...
   1649c:	fb5e ffff 0001 0000 0126 0000 ffd9 ffff     ^.......&.......
   164ac:	0c8b 0000 e7ae ffff fb77 ffff 0977 0000     ........w...w...
   164bc:	ffc4 ffff fd77 ffff 008b 0000 0064 0000     ....w.......d...
   164cc:	1fe4 0000 030a 0000 edeb ffff 0145 0000     ............E...
   164dc:	053c 0000 fea9 ffff fef2 ffff 0062 0000     <...........b...
   164ec:	0393 0000 1dd9 0000 fb3e ffff f5c3 ffff     ........>.......
   164fc:	030d 0000 0242 0000 fed1 ffff ffbd ffff     ....B...........
   1650c:	dd5f ffff 0d34 0000 122c 0000 f90e ffff     _...4...,.......
   1651c:	fb8a ffff 02bb 0000 00a4 0000 ff66 ffff     ............f...
   1652c:	e870 ffff e553 ffff 0f47 0000 081b 0000     p...S...G.......
   1653c:	fa24 ffff febf ffff 01c3 0000 0000 0000     $...............
   1654c:	19d0 0000 e28d ffff f37c ffff 0c34 0000     ........|...4...
   1655c:	023a 0000 fc14 ffff 0028 0000 00be 0000     :.......(.......
   1656c:	281d 0000 0e12 0000 e831 ffff fcda ffff     .(......1.......
   1657c:	0818 0000 ff76 ffff fdec ffff 006c 0000     ....v.......l...
   1658c:	f8ea ffff 27c0 0000 0231 0000 f021 ffff     .....'..1...!...
   1659c:	0184 0000 0485 0000 fea2 ffff ff56 ffff     ............V...
   165ac:	d1a5 ffff 03d2 0000 1c4b 0000 fbbc ffff     ........K.......
   165bc:	f6e9 ffff 0332 0000 01bf 0000 ff1f ffff     ....2...........
   165cc:	f31a ffff d5b9 ffff 0af6 0000 1108 0000     ................
   165dc:	f918 ffff fc52 ffff 02a4 0000 0050 0000     ....R.......P...
   165ec:	2d57 0000 e9da ffff e369 ffff 0e6c 0000     W-......i...l...
   165fc:	0721 0000 fa10 ffff ff5a ffff 0148 0000     !.......Z...H...
   1660c:	1df2 0000 29c8 0000 e413 ffff f370 ffff     .....)......p...
   1661c:	0c44 0000 0128 0000 fc54 ffff 0062 0000     D...(...T...b...
   1662c:	cea2 ffff 2f8a 0000 13f5 0000 e813 ffff     ...../..........
   1663c:	fe18 ffff 0807 0000 fe99 ffff fea0 ffff     ................
   1664c:	bb4d ffff e311 ffff 2b88 0000 02a5 0000     M........+......
   1665c:	efd6 ffff 0358 0000 03bb 0000 fea3 ffff     ....X...........
   1666c:	15f1 0000 b4c4 ffff fca3 ffff 1ed7 0000     ................
   1667c:	f912 ffff f805 ffff 0431 0000 00cf 0000     ........1.......
   1668c:	5e0f 0000 fcdc ffff c676 ffff 0d3d 0000     .^......v...=...
   1669c:	1019 0000 f6bd ffff fe2c ffff 0254 0000     ........,...T...
   166ac:	117d 0000 5d9f 0000 e4ca ffff dfb0 ffff     }....]..........
   166bc:	126b 0000 03df 0000 f966 ffff 00d3 0000     k.......f.......
   166cc:	8dfd ffff 3486 0000 3ba3 0000 db64 ffff     .....4...;..d...
   166dc:	f6d6 ffff 0e58 0000 fd10 ffff fde0 ffff     ....X...........
   166ec:	ae54 ffff 9f06 ffff 4654 0000 13e7 0000     T.......TF......
   166fc:	e177 ffff 05db 0000 054d 0000 fcf6 ffff     w.......M.......
   1670c:	724b 0000 81ea ffff d8a9 ffff 3f26 0000     Kr..........&?..
   1671c:	f50b ffff f2f1 ffff 0811 0000 feb3 ffff     ................
   1672c:	b34f 0000 415b 0000 81ed ffff 13a6 0000     O...[A..........
   1673c:	1f01 0000 ecb6 ffff 0315 0000 0033 0000     ............3...
   1674c:	b84e ffff e97a 0000 dcb6 ffff b7c2 ffff     N...z...........
   1675c:	2c6c 0000 f8e7 ffff fe87 ffff ffa0 ffff     l,..............
   1676c:	a5e7 fffe 4334 0000 a399 0000 9a76 ffff     ....4C......v...
   1677c:	0fc9 0000 0498 0000 003e 0000 fec4 ffff     ........>.......
   1678c:	733f ffff a362 fffe e8d2 0000 dd40 ffff     ?s..b.......@...
   1679c:	f341 ffff 010e 0000 035b 0000 ffbb ffff     A.......[.......
   167ac:	4a08 0002 e01c fffd 4ed3 0000 2311 0000     .J.......N...#..
   167bc:	fa42 ffff f8c7 ffff 0134 0000 012a 0000     B.......4...*...
   167cc:	c6ed 0004 1e44 ffff 99de ffff 140e 0000     ....D...........
   167dc:	0f26 0000 fc48 ffff fcf4 ffff 009b 0000     &...H...........
   167ec:	7a4b 0004 3c06 0001 b78a ffff dbef ffff     Kz...<..........
   167fc:	0a00 0000 0618 0000 fdea ffff feff ffff     ................
   1680c:	be86 0001 11a5 0002 7fb7 0000 e593 ffff     ................
   1681c:	f369 ffff 053c 0000 0258 0000 ff22 ffff     i...<...X..."...
   1682c:	42ba ffff 01b0 0001 ed41 0000 37f7 0000     .B......A....7..
   1683c:	f666 ffff fbdd ffff 02a3 0000 00b2 0000     f...............
   1684c:	eeca fffe 87db ffff 79f8 0000 692e 0000     .........y...i..
   1685c:	1918 0000 fc96 ffff fee8 ffff 0109 0000     ................
   1686c:	0c12 0000 3a99 ffff be1a ffff 3590 0000     .....:.......5..
   1687c:	2e56 0000 0b30 0000 feee ffff ffea ffff     V...0...........
   1688c:	b222 0000 fb88 ffff 91ab ffff dd1a ffff     "...............
   1689c:	1690 0000 1433 0000 04d0 0000 ffe7 ffff     ....3...........
   168ac:	3903 0000 849b 0000 fa44 ffff c7e0 ffff     .9......D.......
   168bc:	ede0 ffff 0942 0000 087e 0000 01e4 0000     ....B...~.......
   168cc:	95a0 ffff 37db 0000 4c54 0000 fcfd ffff     .....7..TL......
   168dc:	e4be ffff f6dc ffff 03a9 0000 0338 0000     ............8...
   168ec:	ad7f ffff b3e8 ffff 24e6 0000 283c 0000     .........$..<(..
   168fc:	ff00 ffff f334 ffff fb9c ffff 0193 0000     ....4...........
   1690c:	3183 0000 b752 ffff d577 ffff 14be 0000     .1..R...w.......
   1691c:	1441 0000 fffc ffff fa13 ffff fea3 ffff     A...............
   1692c:	5325 0000 1e7e 0000 d14e ffff ea42 ffff     %S..~...N...B...
   1693c:	0a60 0000 0a24 0000 ffe6 ffff fdde ffff     `...$...........
   1694c:	f83d ffff 4670 0000 0d9a 0000 e674 ffff     =...pF......t...
   1695c:	f4b4 ffff 0538 0000 049d 0000 ffcc ffff     ....8...........
   1696c:	b79d ffff 051a 0000 2a43 0000 06a9 0000     ........C*......
   1697c:	f263 ffff fa84 ffff 0280 0000 018e 0000     c...............
   1698c:	e4ee ffff ca55 ffff 05a3 0000 17d4 0000     ....U...........
   1699c:	02e4 0000 f92b ffff fd99 ffff 00f6 0000     ....+...........
   169ac:	29fb 0000 e71b ffff def0 ffff 04de 0000     .)..............
   169bc:	0c6c 0000 0132 0000 fcd6 ffff ff41 ffff     l...2.......A...
   169cc:	1fd5 0000 2231 0000 ed11 ffff ee31 ffff     ....1"......1...
   169dc:	033d 0000 0616 0000 006b 0000 fede ffff     =.......k.......
   169ec:	e39c ffff 211b 0000 136d 0000 f3df ffff     .....!..m.......
   169fc:	f72c ffff 01ce 0000 02bf 0000 0010 0000     ,...............
   16a0c:	d6eb ffff ee16 ffff 17d0 0000 0948 0000     ............H...
   16a1c:	f942 ffff fbce ffff 00ea 0000 00f2 0000     B...............
   16a2c:	08a4 0000 da21 ffff f909 ffff 0e00 0000     ....!...........
   16a3c:	042e 0000 fc94 ffff fe28 ffff 0060 0000     ........(...`...
   16a4c:	2a58 0000 ff08 ffff e7f9 ffff fe14 ffff     X*..............
   16a5c:	0759 0000 01dd 0000 fe64 ffff ff66 ffff     Y.......d...f...
   16a6c:	0ce3 0000 21b7 0000 fb48 ffff f31c ffff     .....!..H.......
   16a7c:	ffa7 ffff 039e 0000 00c5 0000 ff69 ffff     ............i...
   16a8c:	e071 ffff 1127 0000 1304 0000 fbeb ffff     q...'...........
   16a9c:	f99d ffff 0003 0000 01a7 0000 0037 0000     ............7...
   16aac:	e4f4 ffff ea9f ffff 0d22 0000 095b 0000     ........"...[...
   16abc:	fd7b ffff fcf5 ffff 0015 0000 0094 0000     {...............
   16acc:	0e2d 0000 e694 ffff f5ab ffff 07e2 0000     -...............
   16adc:	0461 0000 fea9 ffff fea7 ffff 0012 0000     a...............
   16aec:	1e65 0000 0628 0000 efa7 ffff fb94 ffff     e...(...........
   16afc:	042d 0000 0202 0000 ff58 ffff ff8b ffff     -.......X.......
   16b0c:	02ab 0000 18e2 0000 0118 0000 f717 ffff     ................
   16b1c:	fe24 ffff 020f 0000 00dd 0000 ffbe ffff     $...............
   16b2c:	e750 ffff 06b9 0000 0e97 0000 ff99 ffff     P...............
   16b3c:	fb86 ffff ff36 ffff 00f2 0000 0046 0000     ....6.......F...
   16b4c:	f1de ffff edf8 ffff 0609 0000 0778 0000     ............x...
   16b5c:	ff81 ffff fdda ffff ffb0 ffff 0057 0000     ............W...
   16b6c:	0e43 0000 f1a8 ffff f66b ffff 03e1 0000     C.......k.......
   16b7c:	039e 0000 ffaf ffff ff09 ffff ffec ffff     ................
   16b8c:	12d2 0000 0880 0000 f651 ffff fb73 ffff     ........Q...s...
   16b9c:	0220 0000 01b3 0000 ffd2 ffff ffab ffff      ...............
   16bac:	fcdf ffff 1036 0000 0393 0000 fa8a ffff     ....6...........
   16bbc:	fde7 ffff 0112 0000 00bf 0000 ffea ffff     ................
   16bcc:	ee9c ffff 0074 0000 09ed 0000 014f 0000     ....t.......O...
   16bdc:	fd31 ffff ff0c ffff 007f 0000 0040 0000     1...........@...
   16bec:	fa7b ffff f27d ffff 01a2 0000 0545 0000     {...}.......E...
   16bfc:	0078 0000 fea3 ffff ff99 ffff 0030 0000     x...........0...
   16c0c:	0c1b 0000 f94d ffff f858 ffff 015c 0000     ....M...X...\...
   16c1c:	029f 0000 002c 0000 ff61 ffff ffe1 ffff     ....,...a.......
   16c2c:	0a4a 0000 0850 0000 fb0b ffff fc29 ffff     J...P.......)...
   16c3c:	00d4 0000 0140 0000 000d 0000 ffc7 ffff     ....@...........
   16c4c:	fa88 ffff 0988 0000 042e 0000 fd0c ffff     ................
   16c5c:	fe28 ffff 006f 0000 008e 0000 0000 0000     (...o...........
   16c6c:	f4c0 ffff fd61 ffff 0629 0000 01e2 0000     ....a...).......
   16c7c:	fe6f ffff ff23 ffff 0037 0000 0031 0000     o...#...7...1...
   16c8c:	ff70 ffff f6b1 ffff ff51 ffff 0364 0000     p.......Q...d...
   16c9c:	00d5 0000 ff3a ffff ffa1 ffff 0016 0000     ....:...........
   16cac:	094d 0000 fdeb ffff fa72 ffff fffc ffff     M.......r.......
   16cbc:	01b9 0000 005d 0000 ffa5 ffff ffe2 ffff     ....]...........
   16ccc:	04c7 0000 06f4 0000 fe03 ffff fd1b ffff     ................
   16cdc:	0019 0000 00d5 0000 0026 0000 ffe0 ffff     ........&.......
   16cec:	fa4c ffff 04fd 0000 03cc 0000 feac ffff     L...............
   16cfc:	fe95 ffff 0014 0000 0060 0000 000a 0000     ........`.......
   16d0c:	f949 ffff fc66 ffff 0375 0000 01d7 0000     I...f...u.......
   16d1c:	ff42 ffff ff53 ffff 000d 0000 0021 0000     B...S.......!...
   16d2c:	01be 0000 fa11 ffff fe60 ffff 01fc 0000     ........`.......
   16d3c:	00dc 0000 ff9f ffff ffb4 ffff 0007 0000     ................
   16d4c:	068a 0000 0050 0000 fc4b ffff ff5b ffff     ....P...K...[...
   16d5c:	0107 0000 0064 0000 ffd2 ffff ffe7 ffff     ....d...........
   16d6c:	018d 0000 0535 0000 ffa9 ffff fe01 ffff     ....5...........
   16d7c:	ffc1 ffff 0081 0000 002b 0000 fff0 ffff     ........+.......
   16d8c:	fb25 ffff 0227 0000 0300 0000 ff9e ffff     %...'...........
   16d9c:	ff01 ffff ffe7 ffff 003b 0000 000d 0000     ........;.......
   16dac:	fc6b ffff fc90 ffff 01af 0000 0186 0000     k...............
   16dbc:	ffc1 ffff ff86 ffff fff8 ffff 0015 0000     ................
   16dcc:	0278 0000 fc90 ffff fe3a ffff 0106 0000     x.......:.......
   16ddc:	00bc 0000 ffde ffff ffc9 ffff ffff ffff     ................
   16dec:	0436 0000 0153 0000 fdbe ffff ff30 ffff     6...S.......0...
   16dfc:	008d 0000 0058 0000 ffef ffff ffee ffff     ....X...........
   16e0c:	ffdd ffff 038e 0000 0074 0000 febd ffff     ........t.......
   16e1c:	ffa3 ffff 0046 0000 0026 0000 fff9 ffff     ....F...&.......
   16e2c:	fc58 ffff 0087 0000 0224 0000 001c 0000     X.......$.......
   16e3c:	ff5b ffff ffd7 ffff 001f 0000 000d 0000     [...............
   16e4c:	fe6a ffff fd38 ffff 009c 0000 011f 0000     j...8...........
   16e5c:	0003 0000 ffb0 ffff ffef ffff 000a 0000     ................
   16e6c:	0260 0000 fe42 ffff fe76 ffff 006e 0000     `...B...v...n...
   16e7c:	008e 0000 fffe ffff ffdc ffff fffc ffff     ................
   16e8c:	0275 0000 018e 0000 fec5 ffff ff3e ffff     u...........>...
   16e9c:	0040 0000 0043 0000 fffd ffff fff4 ffff     @...C...........
   16eac:	ff20 ffff 0237 0000 00bc 0000 ff49 ffff      ...7.......I...
   16ebc:	ffa4 ffff 001f 0000 001d 0000 fffd ffff     ................
   16ecc:	fd7e ffff ffb6 ffff 0167 0000 004f 0000     ~.......g...O...
   16edc:	ffa1 ffff ffd6 ffff 000f 0000 000a 0000     ................
   16eec:	ff93 ffff fdfa ffff 0007 0000 00c2 0000     ................
   16efc:	0021 0000 ffd1 ffff ffee ffff 0006 0000     !...............
   16f0c:	01f0 0000 ff4f ffff fed3 ffff 0018 0000     ....O...........
   16f1c:	0062 0000 000d 0000 ffeb ffff fffb ffff     b...............
   16f2c:	0142 0000 0166 0000 ff6e ffff ff66 ffff     B...f...n...f...
   16f3c:	0012 0000 002e 0000 0004 0000 fff9 ffff     ................
   16f4c:	fef1 ffff 013d 0000 00bd 0000 ffa4 ffff     ....=...........
   16f5c:	ffb5 ffff 000b 0000 0015 0000 0001 0000     ................
   16f6c:	fe6e ffff ff64 ffff 00d3 0000 0059 0000     n...d.......Y...
   16f7c:	ffcf ffff ffdd ffff 0005 0000 0007 0000     ................
   16f8c:	002b 0000 fea8 ffff ffc3 ffff 0077 0000     +...........w...
   16f9c:	0028 0000 ffe9 ffff fff0 ffff 0002 0000     (...............
   16fac:	016b 0000 ffe4 ffff ff2e ffff ffec ffff     k...............
   16fbc:	003d 0000 0012 0000 fff6 ffff fffb ffff     =...............
   16fcc:	0084 0000 0118 0000 ffd1 ffff ff91 ffff     ................
   16fdc:	fffb ffff 001d 0000 0007 0000 fffd ffff     ................
   16fec:	ff08 ffff 009a 0000 009e 0000 ffdd ffff     ................
   16ffc:	ffca ffff ffff ffff 000e 0000 0002 0000     ................
   1700c:	ff1d ffff ff59 ffff 006f 0000 004f 0000     ....Y...o...O...
   1701c:	ffec ffff ffe6 ffff 0000 0000 0005 0000     ................
   1702c:	0068 0000 ff30 ffff ffae ffff 0041 0000     h...0.......A...
   1703c:	0026 0000 fff6 ffff fff4 ffff 0001 0000     &...............
   1704c:	00f3 0000 002d 0000 ff7a ffff ffdd ffff     ....-...z.......
   1705c:	0022 0000 0010 0000 fffb ffff fffd ffff     "...............
   1706c:	0019 0000 00c6 0000 0007 0000 ffb7 ffff     ................
   1707c:	fff1 ffff 0010 0000 0007 0000 ffff ffff     ................
   1708c:	ff3c ffff 0037 0000 0075 0000 fffd ffff     <...7...u.......
   1709c:	ffdc ffff fffa ffff 0006 0000 0002 0000     ................
   170ac:	ff91 ffff ff6f ffff 0030 0000 003d 0000     ....o...0...=...
   170bc:	fffb ffff ffef ffff fffe ffff 0001 0000     ................
   170cc:	0073 0000 ff8f ffff ffb3 ffff 001f 0000     s...............
   170dc:	001e 0000 fffe ffff fff9 ffff 0000 0000     ................
   170ec:	0095 0000 0045 0000 ffb4 ffff ffdc ffff     ....E...........
   170fc:	0011 0000 000d 0000 fffe ffff fffd ffff     ................
   1710c:	ffe4 ffff 0081 0000 001e 0000 ffd5 ffff     ................
   1711c:	fff0 ffff 0008 0000 0006 0000 ffff ffff     ................
   1712c:	ff74 ffff 0000 0000 004f 0000 000b 0000     t.......O.......
   1713c:	ffea ffff fff9 ffff 0003 0000 0001 0000     ................
   1714c:	ffd8 ffff ff92 ffff 000c 0000 002a 0000     ............*...
   1715c:	0003 0000 fff5 ffff fffd ffff 0000 0000     ................
   1716c:	0065 0000 ffcc ffff ffc1 ffff 000a 0000     e...............
   1717c:	0016 0000 0002 0000 fffb ffff ffff ffff     ................
   1718c:	0050 0000 0045 0000 ffda ffff ffe1 ffff     P...E...........
   1719c:	0007 0000 0009 0000 0000 0000 ffff ffff     ................
   171ac:	ffd1 ffff 004b 0000 0023 0000 ffe9 ffff     ....K...#.......
   171bc:	fff1 ffff 0002 0000 0004 0000 ffff ffff     ................
   171cc:	ffa6 ffff ffe9 ffff 0032 0000 000f 0000     ........2.......
   171dc:	fff4 ffff fff9 ffff 0001 0000 0002 0000     ................
   171ec:	fffe ffff ffb5 ffff fffa ffff 001b 0000     ................
   171fc:	0006 0000 fffb ffff fffe ffff 0000 0000     ................
   1720c:	004d 0000 fff1 ffff ffd3 ffff 0000 0000     M...............
   1721c:	000d 0000 0002 0000 ffff ffff ffff ffff     ................
   1722c:	0026 0000 003a 0000 fff1 ffff ffe9 ffff     &...:...........
   1723c:	0001 0000 0006 0000 0001 0000 0000 0000     ................
   1724c:	ffd0 ffff 0027 0000 001f 0000 fff6 ffff     ....'...........
   1725c:	fff4 ffff 0001 0000 0003 0000 0000 0000     ................
   1726c:	ffce ffff ffba ffff 0015 0000 001c 0000     ................
   1727c:	ffff ffff fff8 ffff ffff ffff 0000 0000     ................

0001728c <H_ACC_LUT3_101>:
   1728c:	ffe4 ffff 0018 0000 000d 0000 fff5 ffff     ................
   1729c:	fffe ffff 0003 0000 ffff ffff 0000 0000     ................
   172ac:	ffdd ffff ffee ffff 0015 0000 0004 0000     ................
   172bc:	fff9 ffff 0001 0000 0001 0000 0000 0000     ................
   172cc:	000f 0000 ffda ffff fffc ffff 000f 0000     ................
   172dc:	ffff ffff fffc ffff 0001 0000 0000 0000     ................
   172ec:	0030 0000 0000 0000 ffe4 ffff 0004 0000     0...............
   172fc:	0008 0000 fffe ffff ffff ffff 0001 0000     ................
   1730c:	000a 0000 002d 0000 fff6 ffff fff0 ffff     ....-...........
   1731c:	0006 0000 0003 0000 ffff ffff 0000 0000     ................
   1732c:	ffcc ffff 0018 0000 001b 0000 fff3 ffff     ................
   1733c:	fffa ffff 0004 0000 0001 0000 ffff ffff     ................
   1734c:	ffd8 ffff ffd9 ffff 001b 0000 000a 0000     ................
   1735c:	fff6 ffff fffe ffff 0002 0000 0000 0000     ................
   1736c:	0027 0000 ffcd ffff ffee ffff 0015 0000     '...............
   1737c:	0002 0000 fffa ffff 0001 0000 0000 0000     ................
   1738c:	0044 0000 0014 0000 ffd7 ffff fffe ffff     D...............
   1739c:	000d 0000 fffd ffff fffd ffff 0000 0000     ................
   173ac:	fff6 ffff 0046 0000 fffd ffff ffe7 ffff     ....F...........
   173bc:	0005 0000 0006 0000 fffe ffff ffff ffff     ................
   173cc:	ffaa ffff 0010 0000 002f 0000 fff4 ffff     ......../.......
   173dc:	fff3 ffff 0006 0000 0001 0000 ffff ffff     ................
   173ec:	ffda ffff ffb6 ffff 001c 0000 0017 0000     ................
   173fc:	fff3 ffff fffc ffff 0003 0000 0000 0000     ................
   1740c:	004f 0000 ffc5 ffff ffd9 ffff 001b 0000     O...............
   1741c:	0007 0000 fff8 ffff 0000 0000 0001 0000     ................
   1742c:	0058 0000 0036 0000 ffc9 ffff fff4 ffff     X...6...........
   1743c:	0013 0000 ffff ffff fffb ffff 0000 0000     ................
   1744c:	ffd1 ffff 0063 0000 0011 0000 ffd9 ffff     ....c...........
   1745c:	0002 0000 000b 0000 fffe ffff ffff ffff     ................
   1746c:	ff80 ffff fff6 ffff 0049 0000 fff9 ffff     ........I.......
   1747c:	ffeb ffff 0006 0000 0004 0000 ffff ffff     ................
   1748c:	fff0 ffff ff87 ffff 0016 0000 002a 0000     ............*...
   1749c:	fff2 ffff fff7 ffff 0005 0000 0002 0000     ................
   174ac:	008d 0000 ffca ffff ffb6 ffff 001f 0000     ................
   174bc:	0010 0000 fff4 ffff fffe ffff 0001 0000     ................
   174cc:	005f 0000 0070 0000 ffbe ffff ffe0 ffff     _...p...........
   174dc:	001a 0000 0004 0000 fff9 ffff 0001 0000     ................
   174ec:	ff8f ffff 007e 0000 0034 0000 ffca ffff     ....~...4.......
   174fc:	fff9 ffff 0010 0000 fffd ffff fffe ffff     ................
   1750c:	ff52 ffff ffc1 ffff 006a 0000 0008 0000     R.......j.......
   1751c:	ffde ffff 0005 0000 0008 0000 fffe ffff     ................
   1752c:	0027 0000 ff4a ffff fffe ffff 0043 0000     '...J.......C...
   1753c:	fff4 ffff fff0 ffff 0005 0000 0001 0000     ................
   1754c:	00e1 0000 ffe5 ffff ff82 ffff 001d 0000     ................
   1755c:	0021 0000 fff1 ffff fffb ffff 0003 0000     !...............
   1756c:	004f 0000 00c8 0000 ffbf ffff ffbf ffff     O...............
   1757c:	0020 0000 000b 0000 fff6 ffff ffff ffff      ...............
   1758c:	ff22 ffff 008c 0000 0070 0000 ffbc ffff     ".......p.......
   1759c:	ffea ffff 0018 0000 0001 0000 fffc ffff     ................
   175ac:	ff2b ffff ff63 ffff 008b 0000 0028 0000     +...c.......(...
   175bc:	ffce ffff ffff ffff 000d 0000 fffe ffff     ................
   175cc:	008f 0000 ff05 ffff ffc8 ffff 0066 0000     ............f...
   175dc:	fffe ffff ffe4 ffff 0006 0000 0003 0000     ................
   175ec:	014a 0000 0031 0000 ff3f ffff 000a 0000     J...1...?.......
   175fc:	0039 0000 fff2 ffff fff5 ffff 0004 0000     9...............
   1760c:	000d 0000 0141 0000 ffd7 ffff ff8f ffff     ....A...........
   1761c:	0021 0000 0018 0000 fff4 ffff fffe ffff     !...............
   1762c:	fe82 ffff 0078 0000 00cc 0000 ffb7 ffff     ....x...........
   1763c:	ffcf ffff 001f 0000 0006 0000 fffa ffff     ................
   1764c:	ff22 ffff fec8 ffff 009f 0000 005d 0000     "...........]...
   1765c:	ffbe ffff fff3 ffff 0013 0000 ffff ffff     ................
   1766c:	0146 0000 feca ffff ff67 ffff 0089 0000     F.......g.......
   1767c:	0017 0000 ffd6 ffff 0004 0000 0007 0000     ................
   1768c:	01b7 0000 00c4 0000 fef0 ffff ffdd ffff     ................
   1769c:	0059 0000 fff6 ffff ffec ffff 0003 0000     Y...............
   176ac:	ff72 ffff 01d8 0000 001f 0000 ff4c ffff     r...........L...
   176bc:	0017 0000 002e 0000 fff2 ffff fffb ffff     ................
   176cc:	fdaf ffff 001e 0000 014f 0000 ffc5 ffff     ........O.......
   176dc:	ffa3 ffff 0023 0000 000f 0000 fff7 ffff     ....#...........
   176ec:	ff61 ffff fde7 ffff 0092 0000 00b4 0000     a...............
   176fc:	ffb3 ffff ffde ffff 001a 0000 0003 0000     ................
   1770c:	0260 0000 feb8 ffff fec7 ffff 00a6 0000     `...............
   1771c:	0042 0000 ffc4 ffff fffc ffff 000b 0000     B...............
   1772c:	0206 0000 01c2 0000 fea8 ffff ff89 ffff     ................
   1773c:	007f 0000 0007 0000 ffde ffff 0005 0000     ................
   1774c:	fe53 ffff 0276 0000 00b3 0000 fefb ffff     S...v...........
   1775c:	fff7 ffff 004b 0000 fff3 ffff fff5 ffff     ....K...........
   1776c:	fcb5 ffff ff48 ffff 01f5 0000 fffd ffff     ....H...........
   1777c:	ff65 ffff 0021 0000 0020 0000 fff5 ffff     e...!... .......
   1778c:	002b 0000 fcb9 ffff 0041 0000 0130 0000     +.......A...0...
   1779c:	ffb6 ffff ffba ffff 0020 0000 0007 0000     ........ .......
   177ac:	03f4 0000 ff0d ffff fdd7 ffff 00aa 0000     ................
   177bc:	008d 0000 ffb4 ffff ffec ffff 0010 0000     ................
   177cc:	01f5 0000 0354 0000 fe88 ffff fef7 ffff     ....T...........
   177dc:	00a4 0000 0029 0000 ffcf ffff 0001 0000     ....)...........
   177ec:	fc70 ffff 02ec 0000 01ba 0000 fea8 ffff     p...............
   177fc:	ffb3 ffff 0070 0000 fffb ffff ffec ffff     ....p...........
   1780c:	fbc4 ffff fdb1 ffff 02ab 0000 007d 0000     ............}...
   1781c:	ff16 ffff 000f 0000 0038 0000 fff6 ffff     ........8.......
   1782c:	01e2 0000 fb50 ffff ff6c ffff 01d8 0000     ....P...l.......
   1783c:	ffd9 ffff ff83 ffff 0023 0000 0011 0000     ........#.......
   1784c:	05fd 0000 002b 0000 fc8c ffff 0070 0000     ....+.......p...
   1785c:	00fe 0000 ffab ffff ffd2 ffff 0016 0000     ................
   1786c:	010c 0000 059b 0000 fecb ffff fe12 ffff     ................
   1787c:	00ba 0000 0063 0000 ffbd ffff fff8 ffff     ....c...........
   1788c:	f983 ffff 02dc 0000 0368 0000 fe6d ffff     ........h...m...
   1789c:	ff3b ffff 009a 0000 0013 0000 ffe1 ffff     ;...............
   178ac:	fb3e ffff faf4 ffff 0349 0000 0169 0000     >.......I...i...
   178bc:	feb8 ffff ffe0 ffff 0059 0000 fff8 ffff     ........Y.......
   178cc:	0510 0000 f9dd ffff fdc9 ffff 02a0 0000     ................
   178dc:	0033 0000 ff39 ffff 001e 0000 0020 0000     3...9....... ...
   178ec:	0867 0000 029c 0000 fae8 ffff ffca ffff     g...............
   178fc:	019d 0000 ffb7 ffff ffa7 ffff 001b 0000     ................
   1790c:	fe9f ffff 08b0 0000 ffcd ffff fccc ffff     ................
   1791c:	00a9 0000 00c1 0000 ffae ffff ffea ffff     ................
   1792c:	f543 ffff 01ba 0000 05e6 0000 fe7a ffff     C...........z...
   1793c:	fe79 ffff 00c0 0000 003a 0000 ffd5 ffff     y.......:.......
   1794c:	fba9 ffff f6ad ffff 0380 0000 02eb 0000     ................
   1795c:	fe64 ffff ff88 ffff 0080 0000 0003 0000     d...............
   1796c:	0a4a 0000 f8c2 ffff fb01 ffff 0367 0000     J...........g...
   1797c:	00e6 0000 fee1 ffff 0003 0000 0034 0000     ............4...
   1798c:	0aee 0000 06ee 0000 f919 ffff fe76 ffff     ............v...
   1799c:	025f 0000 ffed ffff ff6e ffff 0019 0000     _.......n.......
   179ac:	fa0a ffff 0c6a 0000 0206 0000 fb2b ffff     ....j.......+...
   179bc:	0042 0000 0144 0000 ffae ffff ffd1 ffff     B...D...........
   179cc:	efcf ffff fed7 ffff 0937 0000 ff1d ffff     ........7.......
   179dc:	fd63 ffff 00c4 0000 007e 0000 ffcb ffff     c.......~.......
   179ec:	fdd8 ffff f0cd ffff 02ce 0000 0521 0000     ............!...
   179fc:	fe48 ffff fef3 ffff 00a0 0000 001b 0000     H...............
   17a0c:	11c3 0000 f8c2 ffff f6db ffff 03d9 0000     ................
   17a1c:	0218 0000 fe8f ffff ffc1 ffff 004a 0000     ............J...
   17a2c:	0cae 0000 0d90 0000 f7a9 ffff fc2f ffff     ............/...
   17a3c:	031a 0000 0077 0000 ff24 ffff 0006 0000     ....w...$.......
   17a4c:	f2bd ffff 1007 0000 05e6 0000 f985 ffff     ................
   17a5c:	ff39 ffff 01ea 0000 ffd9 ffff ffa9 ffff     9...............
   17a6c:	e9e3 ffff f986 ffff 0cc4 0000 00ea 0000     ................
   17a7c:	fc04 ffff 006f 0000 00f2 0000 ffcc ffff     ....o...........
   17a8c:	0268 0000 ea43 ffff 0039 0000 07e3 0000     h...C...9.......
   17a9c:	fee0 ffff fdf3 ffff 00ab 0000 0050 0000     ............P...
   17aac:	19ee 0000 fb51 ffff f1c0 ffff 02fa 0000     ....Q...........
   17abc:	041c 0000 fe70 ffff ff30 ffff 006e 0000     ....p...0...n...
   17acc:	0b93 0000 1560 0000 f87d ffff f860 ffff     ....`...}...`...
   17adc:	0368 0000 01b4 0000 feb6 ffff ffde ffff     h...............
   17aec:	ea94 ffff 0fcc 0000 0c53 0000 f8c5 ffff     ........S.......
   17afc:	fcba ffff 02e5 0000 0044 0000 ff68 ffff     ........D...h...
   17b0c:	ea07 ffff f060 ffff 0e49 0000 059e 0000     ....`...I.......
   17b1c:	f9fb ffff ff90 ffff 01b5 0000 ffd5 ffff     ................
   17b2c:	0d0e 0000 e879 ffff f7f8 ffff 0be8 0000     ....y...........
   17b3c:	0096 0000 fc42 ffff 00a2 0000 00a6 0000     ....B...........
   17b4c:	1abf 0000 097c 0000 ea89 ffff ffce ffff     ....|...........
   17b5c:	078f 0000 fe74 ffff fe3c ffff 0098 0000     ....t...<.......
   17b6c:	f50c ffff 21ba 0000 fe7b ffff f1c4 ffff     .....!..{.......
   17b7c:	0368 0000 03c6 0000 fe2a ffff ff8a ffff     h.......*.......
   17b8c:	d22e ffff 0430 0000 18a1 0000 f8df ffff     ....0...........
   17b9c:	f896 ffff 0423 0000 011f 0000 fef4 ffff     ....#...........
   17bac:	f11d ffff d705 ffff 0d4e 0000 0da7 0000     ........N.......
   17bbc:	f796 ffff fdbc ffff 030f 0000 ffe5 ffff     ................
   17bcc:	2dd1 0000 e512 ffff e6fb ffff 0fe1 0000     .-..............
   17bdc:	046c 0000 f957 ffff 009b 0000 014d 0000     l...W.......M...
   17bec:	26d5 0000 256c 0000 e15a ffff f6dd ffff     .&..l%..Z.......
   17bfc:	0d2b 0000 fe8d ffff fc74 ffff 0124 0000     +.......t...$...
   17c0c:	d71b ffff 34d9 0000 0fc2 0000 e5d8 ffff     .....4..........
   17c1c:	0223 0000 078f 0000 fc72 ffff ff3f ffff     #.......r...?...
   17c2c:	b8e1 ffff e938 ffff 30f3 0000 fc8a ffff     ....8....0......
   17c3c:	efae ffff 0756 0000 017e 0000 fdb2 ffff     ....V...~.......
   17c4c:	1466 0000 ac6c ffff 05f0 0000 21b7 0000     f...l........!..
   17c5c:	f15b ffff fbb9 ffff 05e3 0000 fe0e ffff     [...............
   17c6c:	6db7 0000 f3c4 ffff bdbf ffff 1c22 0000     .m.........."...
   17c7c:	0b63 0000 f1c5 ffff 04e9 0000 ff5f ffff     c..........._...
   17c8c:	18a5 0000 75f3 0000 cbe1 ffff e2e6 ffff     .....u..........
   17c9c:	211f 0000 f47e ffff 010f 0000 ffcd ffff     .!..~...........
   17cac:	5d9e ffff 5a6a 0000 4692 0000 b3da ffff     .]..jZ...F......
   17cbc:	1a04 0000 fe31 ffff ffcd ffff ff56 ffff     ....1.......V...
   17ccc:	7e8b ffff 60d0 ffff ad4d 0000 c5c2 ffff     .~...`..M.......
   17cdc:	02b1 0000 01ae 0000 017a 0000 ff70 ffff     ........z...p...
   17cec:	32a9 0001 7aa4 fffe 8320 0000 fd8a ffff     .2...z.. .......
   17cfc:	f9b3 ffff fd74 ffff 01b5 0000 005b 0000     ....t.......[...
   17d0c:	6ab6 0003 cfb6 fffe fc35 ffff 1403 0000     .j......5.......
   17d1c:	03ee 0000 fbe3 ffff ff3e ffff 00aa 0000     ........>.......
   17d2c:	2d15 0004 44d0 0000 c6e4 ffff fa8e ffff     .-...D..........
   17d3c:	09a8 0000 010a 0000 fe10 ffff ffd3 ffff     ................
   17d4c:	bf31 0002 770c 0001 28dc 0000 ece7 ffff     1....w...(......
   17d5c:	ffa4 ffff 0474 0000 002c 0000 ff4b ffff     ....t...,...K...
   17d6c:	7bb4 0000 50d1 0001 a255 0000 149b 0000     .{...P..U.......
   17d7c:	f9f9 ffff 00dc 0000 0202 0000 fff6 ffff     ................
   17d8c:	47b8 ffff 3d12 0000 979b 0000 4793 0000     .G...=.......G..
   17d9c:	0a36 0000 fe57 ffff 00db 0000 00b8 0000     6...W...........
   17dac:	9556 ffff 8073 ffff 176c 0000 424e 0000     V...s...l...NB..
   17dbc:	1f9a 0000 04e8 0000 ffc2 ffff 007f 0000     ................
   17dcc:	4b10 0000 aeb3 ffff b8ae ffff 0734 0000     .K..........4...
   17ddc:	1c7e 0000 0dd2 0000 0246 0000 0030 0000     ~.......F...0...
   17dec:	5d64 0000 331e 0000 d1a1 ffff dafa ffff     d]...3..........
   17dfc:	0160 0000 0c0f 0000 05d4 0000 010b 0000     `...............
   17e0c:	ec2f ffff 4ab3 0000 1c7e 0000 e888 ffff     /....J..~.......
   17e1c:	ed7a ffff ffc2 ffff 04ea 0000 0246 0000     z...........F...
   17e2c:	b562 ffff f77d ffff 2cda 0000 0f33 0000     b...}....,..3...
   17e3c:	f4d6 ffff f70e ffff ff85 ffff 01f8 0000     ................
   17e4c:	f383 ffff c536 ffff fd3e ffff 1834 0000     ....6...>...4...
   17e5c:	07e4 0000 fb00 ffff fbc2 ffff 0007 0000     ................
   17e6c:	3453 0000 f014 ffff dc89 ffff ff52 ffff     S4..........R...
   17e7c:	0c1f 0000 0432 0000 fda3 ffff fe8f ffff     ....2...........
   17e8c:	1caf 0000 284a 0000 f33c ffff ed42 ffff     ....J(..<...B...
   17e9c:	ff68 ffff 061a 0000 01e0 0000 ff14 ffff     h...............
   17eac:	df3f ffff 1d7a 0000 162c 0000 f8d6 ffff     ?...z...,.......
   17ebc:	f612 ffff ffc6 ffff 02d5 0000 0090 0000     ................
   17ecc:	d843 ffff ec80 ffff 1279 0000 0c39 0000     C.......y...9...
   17edc:	fbe9 ffff fb12 ffff fffc ffff 0102 0000     ................
   17eec:	056e 0000 e149 ffff f4c1 ffff 0b1e 0000     n...I...........
   17efc:	062c 0000 fdd7 ffff fdc5 ffff 0012 0000     ,...............
   17f0c:	1c1b 0000 03f9 0000 eb9c ffff fa9a ffff     ................
   17f1c:	061a 0000 02f0 0000 fef2 ffff ff3f ffff     ............?...
   17f2c:	006d 0000 1a17 0000 008b 0000 f431 ffff     m...........1...
   17f3c:	fda3 ffff 0314 0000 0149 0000 ff96 ffff     ........I.......
   17f4c:	e4c2 ffff 0527 0000 10fd 0000 ff13 ffff     ....'...........
   17f5c:	f9d6 ffff fefa ffff 016f 0000 0068 0000     ........o...h...
   17f6c:	f43d ffff e9d0 ffff 0632 0000 0936 0000     =.......2...6...
   17f7c:	ff16 ffff fcfc ffff ff98 ffff 0084 0000     ................
   17f8c:	14b6 0000 f15b ffff f391 ffff 048e 0000     ....[...........
   17f9c:	0494 0000 ff6e ffff fea2 ffff ffe6 ffff     ....n...........
   17fac:	154c 0000 0d84 0000 f4f9 ffff fa06 ffff     L...............
   17fbc:	02ab 0000 022f 0000 ffb0 ffff ff86 ffff     ..../...........
   17fcc:	f7d7 ffff 13d7 0000 0602 0000 f970 ffff     ............p...
   17fdc:	fd45 ffff 0164 0000 00f7 0000 ffdb ffff     E...d...........
   17fec:	e8d7 ffff fdb5 ffff 0c9e 0000 0247 0000     ............G...
   17ffc:	fc8b ffff fec5 ffff 00ab 0000 0051 0000     ............Q...
   1800c:	fb8a ffff ed63 ffff 00c0 0000 06cb 0000     ....c...........
   1801c:	00d5 0000 fe4b ffff ff7d ffff 0040 0000     ....K...}...@...
   1802c:	11ef 0000 f8d6 ffff f559 ffff 0130 0000     ........Y...0...
   1803c:	0361 0000 004f 0000 ff39 ffff ffd8 ffff     a...O...9.......
   1804c:	0cb7 0000 0c94 0000 fa37 ffff faa8 ffff     ........7.......
   1805c:	00d5 0000 019c 0000 001a 0000 ffb9 ffff     ................
   1806c:	f6e1 ffff 0c46 0000 0668 0000 fc6f ffff     ....F...h...o...
   1807c:	fd76 ffff 0077 0000 00b7 0000 0004 0000     v...w...........
   1808c:	f0c0 ffff fb2b ffff 080d 0000 02e9 0000     ....+...........
   1809c:	fe18 ffff fed2 ffff 003c 0000 003e 0000     ........<...>...
   180ac:	0074 0000 f336 ffff fe5f ffff 0472 0000     t...6..._...r...
   180bc:	014b 0000 ff0e ffff ff7e ffff 0019 0000     K.......~.......
   180cc:	0d2f 0000 fdfe ffff f85d ffff ff9d ffff     /.......].......
   180dc:	0240 0000 0093 0000 ff8f ffff ffd6 ffff     @...............
   180ec:	05ee 0000 09e8 0000 fdc1 ffff fc05 ffff     ................
   180fc:	fff4 ffff 0117 0000 003c 0000 ffd7 ffff     ........<.......
   1810c:	f7ad ffff 0664 0000 056f 0000 fe72 ffff     ....d...o...r...
   1811c:	fe0d ffff 0004 0000 007d 0000 0012 0000     ........}.......
   1812c:	f714 ffff faa4 ffff 0477 0000 02a9 0000     ........w.......
   1813c:	ff1f ffff ff14 ffff 0007 0000 002c 0000     ............,...
   1814c:	02d5 0000 f815 ffff fd7e ffff 0293 0000     ........~.......
   1815c:	0140 0000 ff8d ffff ff97 ffff 0006 0000     @...............
   1816c:	08d9 0000 00d7 0000 fb0a ffff fef2 ffff     ................
   1817c:	0157 0000 0094 0000 ffc9 ffff ffdd ffff     W...............
   1818c:	01b6 0000 0714 0000 ffcf ffff fd51 ffff     ............Q...
   1819c:	ff90 ffff 00a8 0000 003f 0000 ffeb ffff     ........?.......
   181ac:	f94e ffff 0294 0000 041e 0000 ffa4 ffff     N...............
   181bc:	fea8 ffff ffd1 ffff 004e 0000 0014 0000     ........N.......
   181cc:	fb78 ffff fb31 ffff 0213 0000 021c 0000     x...1...........
   181dc:	ffbd ffff ff5b ffff ffed ffff 001b 0000     ....[...........
   181ec:	0396 0000 fb97 ffff fd77 ffff 014a 0000     ........w...J...
   181fc:	0105 0000 ffda ffff ffb5 ffff fffc ffff     ................
   1820c:	0583 0000 020d 0000 fd10 ffff fece ffff     ................
   1821c:	00b3 0000 007b 0000 ffeb ffff ffe6 ffff     ....{...........
   1822c:	ff7d ffff 04b4 0000 00cb 0000 fe59 ffff     }...........Y...
   1823c:	ff75 ffff 0059 0000 0036 0000 fff6 ffff     u...Y...6.......
   1824c:	fb12 ffff 0071 0000 02de 0000 0040 0000     ....q.......@...
   1825c:	ff27 ffff ffc2 ffff 002a 0000 0012 0000     '.......*.......
   1826c:	fe25 ffff fc32 ffff 00a9 0000 0185 0000     %...2...........
   1827c:	0012 0000 ff97 ffff ffe7 ffff 000f 0000     ................
   1828c:	0358 0000 fddd ffff fddc ffff 0080 0000     X...............
   1829c:	00c0 0000 0005 0000 ffd0 ffff fff9 ffff     ................
   182ac:	0322 0000 0240 0000 fe73 ffff fef1 ffff     "...@...s.......
   182bc:	004b 0000 005c 0000 0000 0000 ffef ffff     K...\...........
   182cc:	fe9b ffff 02df 0000 0119 0000 ff15 ffff     ................
   182dc:	ff7f ffff 0027 0000 0029 0000 fffe ffff     ....'...).......
   182ec:	fcad ffff ff6b ffff 01d6 0000 007a 0000     ....k.......z...
   182fc:	ff85 ffff ffc5 ffff 0013 0000 000d 0000     ................
   1830c:	ffa3 ffff fd48 ffff ffeb ffff 0100 0000     ....H...........
   1831c:	0035 0000 ffc4 ffff ffe6 ffff 0007 0000     5...............
   1832c:	02ac 0000 ff3a ffff fe66 ffff 0010 0000     ....:...f.......
   1833c:	0082 0000 0016 0000 ffe5 ffff fff9 ffff     ................
   1834c:	018e 0000 01f5 0000 ff52 ffff ff2c ffff     ........R...,...
   1835c:	0011 0000 003e 0000 0009 0000 fff6 ffff     ....>...........
   1836c:	fe73 ffff 0192 0000 010e 0000 ff91 ffff     s...............
   1837c:	ff99 ffff 000a 0000 001c 0000 0003 0000     ................
   1838c:	fdf4 ffff ff11 ffff 0112 0000 0080 0000     ................
   1839c:	ffc3 ffff ffcf ffff 0007 0000 0009 0000     ................
   183ac:	005e 0000 fe3a ffff ff9a ffff 009b 0000     ^...:...........
   183bc:	003b 0000 ffe2 ffff ffeb ffff 0004 0000     ;...............
   183cc:	01ea 0000 fff8 ffff fee8 ffff ffda ffff     ................
   183dc:	0050 0000 001a 0000 fff2 ffff fff8 ffff     P...............
   183ec:	0095 0000 0180 0000 ffd3 ffff ff6a ffff     ............j...
   183fc:	fff2 ffff 0027 0000 000b 0000 fffa ffff     ....'...........
   1840c:	fea4 ffff 00b9 0000 00da 0000 ffd9 ffff     ................
   1841c:	ffb6 ffff fffb ffff 0011 0000 0003 0000     ................
   1842c:	fee0 ffff ff10 ffff 008b 0000 006d 0000     ............m...
   1843c:	ffe7 ffff ffde ffff ffff ffff 0006 0000     ................
   1844c:	00a1 0000 fef2 ffff ff87 ffff 0054 0000     ............T...
   1845c:	0033 0000 fff3 ffff fff0 ffff 0000 0000     3...............
   1846c:	0142 0000 004f 0000 ff51 ffff ffca ffff     B...O...Q.......
   1847c:	002c 0000 0019 0000 fff9 ffff fffb ffff     ,...............
   1848c:	000e 0000 010a 0000 0016 0000 ffa0 ffff     ................
   1849c:	ffe8 ffff 0016 0000 000a 0000 fffd ffff     ................
   184ac:	fef3 ffff 003b 0000 009f 0000 0002 0000     ....;...........
   184bc:	ffcf ffff fff5 ffff 0009 0000 0003 0000     ................
   184cc:	ff78 ffff ff38 ffff 0039 0000 0053 0000     x...8...9...S...
   184dc:	fffd ffff ffe9 ffff fffb ffff 0003 0000     ................
   184ec:	00a5 0000 ff72 ffff ff93 ffff 0025 0000     ....r.......%...
   184fc:	0028 0000 fffd ffff fff6 ffff fffe ffff     (...............
   1850c:	00c1 0000 0068 0000 ff9e ffff ffcc ffff     ....h...........
   1851c:	0015 0000 0012 0000 fffe ffff fffd ffff     ................
   1852c:	ffcc ffff 00aa 0000 002f 0000 ffc7 ffff     ......../.......
   1853c:	ffe7 ffff 000b 0000 0009 0000 ffff ffff     ................
   1854c:	ff44 ffff fff6 ffff 006a 0000 0013 0000     D.......j.......
   1855c:	ffe2 ffff fff5 ffff 0004 0000 0002 0000     ................
   1856c:	ffd3 ffff ff6b ffff 0009 0000 0039 0000     ....k.......9...
   1857c:	0008 0000 fff2 ffff fffc ffff 0001 0000     ................
   1858c:	008c 0000 ffc2 ffff ffaa ffff 000b 0000     ................
   1859c:	001c 0000 0004 0000 fffa ffff ffff ffff     ................
   185ac:	0067 0000 0063 0000 ffd0 ffff ffd5 ffff     g...c...........
   185bc:	0008 0000 000e 0000 0001 0000 fffd ffff     ................
   185cc:	ffb9 ffff 0062 0000 0033 0000 ffe3 ffff     ....b...3.......
   185dc:	ffeb ffff 0004 0000 0005 0000 0001 0000     ................
   185ec:	ff88 ffff ffd9 ffff 0041 0000 0017 0000     ........A.......
   185fc:	fff0 ffff fff6 ffff 0002 0000 0002 0000     ................
   1860c:	0005 0000 ff9b ffff fff2 ffff 0023 0000     ............#...
   1861c:	000b 0000 fff9 ffff fffc ffff 0001 0000     ................
   1862c:	0067 0000 fff1 ffff ffc3 ffff fffd ffff     g...............
   1863c:	0012 0000 0004 0000 fffd ffff fffe ffff     ................
   1864c:	002d 0000 004f 0000 ffee ffff ffe0 ffff     -...O...........
   1865c:	ffff ffff 0009 0000 0002 0000 ffff ffff     ................
   1866c:	ffbc ffff 0031 0000 002c 0000 fff3 ffff     ....1...,.......
   1867c:	fff0 ffff 0000 0000 0004 0000 0001 0000     ................
   1868c:	ffba ffff ffd4 ffff 0023 0000 0015 0000     ........#.......
   1869c:	fffa ffff fff9 ffff 0001 0000 0001 0000     ................
   186ac:	001a 0000 ffc2 ffff ffec ffff 0014 0000     ................
   186bc:	000b 0000 fffd ffff fffd ffff 0000 0000     ................
   186cc:	0047 0000 000a 0000 ffd9 ffff fff6 ffff     G...............
   186dc:	000a 0000 0004 0000 ffff ffff ffff ffff     ................
   186ec:	000c 0000 0039 0000 0000 0000 ffeb ffff     ....9...........
   186fc:	fffb ffff 0005 0000 0002 0000 ffff ffff     ................
   1870c:	ffc9 ffff 0015 0000 0021 0000 fffd ffff     ........!.......
   1871c:	fff5 ffff fffe ffff 0002 0000 0001 0000     ................
   1872c:	ffdc ffff ffd9 ffff 0010 0000 0011 0000     ................
   1873c:	fffe ffff fffb ffff ffff ffff 0000 0000     ................
   1874c:	001e 0000 ffdd ffff ffea ffff 0009 0000     ................
   1875c:	0008 0000 ffff ffff fffe ffff 0000 0000     ................
   1876c:	002d 0000 0011 0000 ffe9 ffff fff6 ffff     -...............
   1877c:	0005 0000 0004 0000 ffff ffff 0001 0000     ................
   1878c:	fffa ffff 0026 0000 0007 0000 fff3 ffff     ....&...........
   1879c:	fffb ffff 0002 0000 0001 0000 0000 0000     ................
   187ac:	ffd8 ffff 0003 0000 0017 0000 0002 0000     ................
   187bc:	fffa ffff ffff ffff 0001 0000 0000 0000     ................
   187cc:	ffee ffff 0008 0000 000b 0000 fffe ffff     ................
   187dc:	fffd ffff 0000 0000 0001 0000 0000 0000     ................

000187ec <H_ACC_LUT3_100>:
   187ec:	0040 0000 fff8 ffff ffdd ffff 0007 0000     @...............
   187fc:	0008 0000 fffd ffff ffff ffff 0000 0000     ................
   1880c:	0017 0000 0038 0000 ffed ffff ffee ffff     ....8...........
   1881c:	0009 0000 0003 0000 fffd ffff 0000 0000     ................
   1882c:	ffc3 ffff 0028 0000 001e 0000 ffed ffff     ....(...........
   1883c:	fffb ffff 0006 0000 0001 0000 0000 0000     ................
   1884c:	ffc2 ffff ffd4 ffff 0028 0000 000a 0000     ........(.......
   1885c:	fff2 ffff 0000 0000 0003 0000 0001 0000     ................
   1886c:	0028 0000 ffb9 ffff fff2 ffff 001c 0000     (...............
   1887c:	0000 0000 fff9 ffff 0001 0000 0000 0000     ................
   1888c:	005e 0000 000e 0000 ffc9 ffff 0003 0000     ^...............
   1889c:	0010 0000 fffc ffff ffff ffff 0001 0000     ................
   188ac:	0004 0000 005b 0000 fff5 ffff ffe0 ffff     ....[...........
   188bc:	000a 0000 0006 0000 fffc ffff 0000 0000     ................
   188cc:	ff95 ffff 0023 0000 0038 0000 ffeb ffff     ....#...8.......
   188dc:	fff4 ffff 0008 0000 0001 0000 fffe ffff     ................
   188ec:	ffc0 ffff ffaa ffff 002d 0000 0018 0000     ........-.......
   188fc:	ffed ffff fffd ffff 0005 0000 0000 0000     ................
   1890c:	005a 0000 ffa8 ffff ffd5 ffff 0027 0000     Z...........'...
   1891c:	0005 0000 fff4 ffff 0000 0000 0001 0000     ................
   1892c:	007e 0000 0036 0000 ffb3 ffff fff6 ffff     ~...6...........
   1893c:	0019 0000 fffe ffff fffb ffff 0001 0000     ................
   1894c:	ffda ffff 0086 0000 0008 0000 ffcd ffff     ................
   1895c:	0007 0000 000c 0000 fffb ffff 0000 0000     ................
   1896c:	ff57 ffff 0009 0000 005f 0000 ffef ffff     W......._.......
   1897c:	ffe7 ffff 000a 0000 0004 0000 fffd ffff     ................
   1898c:	ffd2 ffff ff68 ffff 002b 0000 0032 0000     ....h...+...2...
   1899c:	ffe9 ffff fff7 ffff 0007 0000 0000 0000     ................
   189ac:	00ab 0000 ffa1 ffff ffa9 ffff 002f 0000     ............/...
   189bc:	0012 0000 ffef ffff fffe ffff 0003 0000     ................
   189cc:	0096 0000 007e 0000 ff9d ffff ffdf ffff     ....~...........
   189dc:	0025 0000 0002 0000 fff8 ffff 0001 0000     %...............
   189ec:	ff88 ffff 00b5 0000 0030 0000 ffb6 ffff     ........0.......
   189fc:	fffe ffff 0015 0000 fffd ffff fffe ffff     ................
   18a0c:	ff0d ffff ffce ffff 0090 0000 ffff ffff     ................
   18a1c:	ffd4 ffff 000a 0000 0008 0000 fffd ffff     ................
   18a2c:	0009 0000 ff10 ffff 0014 0000 0056 0000     ............V...
   18a3c:	ffea ffff ffee ffff 0009 0000 0001 0000     ................
   18a4c:	0121 0000 ffb8 ffff ff64 ffff 0032 0000     !.......d...2...
   18a5c:	0027 0000 ffea ffff fffb ffff 0004 0000     '...............
   18a6c:	0094 0000 00f1 0000 ff92 ffff ffb6 ffff     ................
   18a7c:	0030 0000 000b 0000 fff2 ffff 0000 0000     0...............
   18a8c:	feff ffff 00da 0000 007c 0000 ff9d ffff     ........|.......
   18a9c:	ffec ffff 0020 0000 ffff ffff fffb ffff     .... ...........
   18aac:	fec5 ffff ff5b ffff 00c4 0000 0021 0000     ....[.......!...
   18abc:	ffbd ffff 0003 0000 000f 0000 fffd ffff     ................
   18acc:	0083 0000 fea6 ffff ffd9 ffff 0087 0000     ................
   18adc:	fff4 ffff ffdd ffff 000a 0000 0003 0000     ................
   18aec:	01ba 0000 0006 0000 ff04 ffff 0022 0000     ............"...
   18afc:	0048 0000 ffe8 ffff fff5 ffff 0006 0000     H...............
   18b0c:	0057 0000 0199 0000 ffa3 ffff ff76 ffff     W...........v...
   18b1c:	0036 0000 001b 0000 ffed ffff fffe ffff     6...............
   18b2c:	fe29 ffff 00d9 0000 00f4 0000 ff8c ffff     )...............
   18b3c:	ffca ffff 002c 0000 0006 0000 fff7 ffff     ....,...........
   18b4c:	fe98 ffff fe99 ffff 00f3 0000 0064 0000     ............d...
   18b5c:	ffa3 ffff fff8 ffff 0019 0000 fffe ffff     ................
   18b6c:	0163 0000 fe3b ffff ff67 ffff 00bf 0000     c...;...g.......
   18b7c:	000f 0000 ffc8 ffff 0008 0000 0008 0000     ................
   18b8c:	0268 0000 00ae 0000 fe8e ffff fff3 ffff     h...............
   18b9c:	0075 0000 ffed ffff ffe8 ffff 0008 0000     u...............
   18bac:	ffb0 ffff 0274 0000 ffeb ffff ff19 ffff     ....t...........
   18bbc:	0030 0000 0035 0000 ffe9 ffff fff9 ffff     0...5...........
   18bcc:	fd02 ffff 008a 0000 01a7 0000 ff8f ffff     ................
   18bdc:	ff93 ffff 0036 0000 0010 0000 fff3 ffff     ....6...........
   18bec:	feb9 ffff fd6c ffff 0100 0000 00d1 0000     ....l...........
   18bfc:	ff8b ffff ffde ffff 0024 0000 0001 0000     ........$.......
   18c0c:	02d0 0000 fdf4 ffff fe9d ffff 00f6 0000     ................
   18c1c:	0041 0000 ffae ffff 0000 0000 000f 0000     A...............
   18c2c:	030b 0000 01e8 0000 fe0f ffff ff91 ffff     ................
   18c3c:	00ad 0000 fffb ffff ffd5 ffff 0007 0000     ................
   18c4c:	fe5d ffff 0373 0000 0092 0000 fea2 ffff     ]...s...........
   18c5c:	0011 0000 005e 0000 ffe8 ffff fff3 ffff     ....^...........
   18c6c:	fb88 ffff ffa6 ffff 0295 0000 ffc4 ffff     ................
   18c7c:	ff3e ffff 0038 0000 0024 0000 fff1 ffff     >...8...$.......
   18c8c:	ff7a ffff fbc4 ffff 00be 0000 0179 0000     z...........y...
   18c9c:	ff81 ffff ffb1 ffff 0030 0000 0007 0000     ........0.......
   18cac:	04f3 0000 fe18 ffff fd61 ffff 0115 0000     ........a.......
   18cbc:	009d 0000 ff93 ffff ffef ffff 0017 0000     ................
   18ccc:	0351 0000 03ec 0000 fdb1 ffff fedd ffff     Q...............
   18cdc:	00eb 0000 0021 0000 ffbe ffff 0003 0000     ....!...........
   18cec:	fc03 ffff 0461 0000 01d1 0000 fe1a ffff     ....a...........
   18cfc:	ffc6 ffff 0094 0000 fff0 ffff ffe7 ffff     ................
   18d0c:	f9f0 ffff fdcb ffff 03b3 0000 004e 0000     ............N...
   18d1c:	fecd ffff 002a 0000 0044 0000 ffee ffff     ....*...D.......
   18d2c:	015f 0000 f9a8 ffff ffe4 ffff 0265 0000     _...........e...
   18d3c:	ff9c ffff ff6b ffff 0039 0000 0013 0000     ....k...9.......
   18d4c:	07dc 0000 ff24 ffff fb98 ffff 00f4 0000     ....$...........
   18d5c:	0131 0000 ff7c ffff ffcd ffff 0020 0000     1...|....... ...
   18d6c:	02ac 0000 06f9 0000 fdbb ffff fdb7 ffff     ................
   18d7c:	011e 0000 0069 0000 ffa2 ffff fffa ffff     ....i...........
   18d8c:	f83c ffff 04d0 0000 03ee 0000 fda0 ffff     <...............
   18d9c:	ff35 ffff 00d5 0000 0007 0000 ffd7 ffff     5...............
   18dac:	f8a3 ffff fa6f ffff 04d2 0000 0164 0000     ....o.......d...
   18dbc:	fe40 ffff fff9 ffff 0074 0000 fff0 ffff     @.......t.......
   18dcc:	0522 0000 f74f ffff fe01 ffff 038e 0000     "...O...........
   18ddc:	fffa ffff ff03 ffff 0037 0000 0026 0000     ........7...&...
   18dec:	0b77 0000 01d2 0000 f93c ffff 004f 0000     w.......<...O...
   18dfc:	020b 0000 ff7c ffff ff99 ffff 0027 0000     ....|.......'...
   18e0c:	0032 0000 0b3e 0000 fea7 ffff fbfd ffff     2...>...........
   18e1c:	0128 0000 00e0 0000 ff85 ffff ffea ffff     (...............
   18e2c:	f290 ffff 0401 0000 073b 0000 fd6e ffff     ........;...n...
   18e3c:	fe3d ffff 0117 0000 0038 0000 ffc4 ffff     =.......8.......
   18e4c:	f867 ffff f4ee ffff 0592 0000 034c 0000     g...........L...
   18e5c:	fdab ffff ff93 ffff 00ad 0000 fffb ffff     ................
   18e6c:	0bb7 0000 f528 ffff fa8d ffff 04d8 0000     ....(...........
   18e7c:	00c9 0000 fe7d ffff 001e 0000 0042 0000     ....}.......B...
   18e8c:	0f7d 0000 0716 0000 f66c ffff fecc ffff     }.......l.......
   18e9c:	0329 0000 ffac ffff ff48 ffff 002b 0000     ).......H...+...
   18eac:	fac3 ffff 10bf 0000 011c 0000 f9a7 ffff     ................
   18ebc:	00d2 0000 0194 0000 ff78 ffff ffcb ffff     ........x.......
   18ecc:	eac0 ffff 00fc 0000 0be1 0000 fde7 ffff     ................
   18edc:	fcc4 ffff 0141 0000 008d 0000 ffb2 ffff     ....A...........
   18eec:	fa3e ffff ecd4 ffff 054d 0000 0644 0000     >.......M...D...
   18efc:	fd43 ffff fed9 ffff 00ea 0000 0015 0000     C...............
   18f0c:	15be 0000 f41c ffff f508 ffff 05eb 0000     ................
   18f1c:	0244 0000 fdec ffff ffda ffff 0065 0000     D...........e...
   18f2c:	12fd 0000 0fcd 0000 f3ad ffff fbf5 ffff     ................
   18f3c:	046b 0000 0038 0000 fede ffff 001d 0000     k...8...........
   18f4c:	f138 ffff 16c9 0000 05ec 0000 f6e5 ffff     8...............
   18f5c:	ffc4 ffff 0287 0000 ff92 ffff ff9b ffff     ................
   18f6c:	e16f ffff fa6a ffff 1199 0000 ffb3 ffff     o...j...........
   18f7c:	fac2 ffff 0115 0000 0119 0000 ffa8 ffff     ................
   18f8c:	ffc8 ffff e274 ffff 02e7 0000 0a57 0000     ....t.......W...
   18f9c:	fd7a ffff fda1 ffff 0112 0000 004c 0000     z...........L...
   18fac:	2315 0000 f5db ffff ed5c ffff 05e9 0000     .#......\.......
   18fbc:	04bd 0000 fd82 ffff ff3f ffff 0091 0000     ........?.......
   18fcc:	1417 0000 1c10 0000 f28a ffff f740 ffff     ............@...
   18fdc:	0562 0000 0183 0000 fe52 ffff ffee ffff     b.......R.......
   18fec:	e3b6 ffff 1ae1 0000 0dfd 0000 f4a7 ffff     ................
   18ffc:	fd38 ffff 03c1 0000 0007 0000 ff44 ffff     8...........D...
   1900c:	da2c ffff ef19 ffff 168a 0000 044e 0000     ,...........N...
   1901c:	f836 ffff 0020 0000 0214 0000 ffaa ffff     6... ...........
   1902c:	0ac3 0000 d98e ffff fb97 ffff 0f68 0000     ............h...
   1903c:	ff56 ffff fb78 ffff 0122 0000 00b2 0000     V...x...".......
   1904c:	2dc2 0000 ffa6 ffff e42f ffff 029f 0000     .-....../.......
   1905c:	092c 0000 fd4f ffff fe20 ffff 00cc 0000     ,...O... .......
   1906c:	0947 0000 2a14 0000 f7e1 ffff eeae ffff     G....*..........
   1907c:	05e7 0000 03fa 0000 fd91 ffff ff97 ffff     ................
   1908c:	d2d8 ffff 1201 0000 1d5a 0000 f36a ffff     ........Z...j...
   1909c:	f838 ffff 057c 0000 00f0 0000 fec4 ffff     8...|...........
   190ac:	e741 ffff d4ee ffff 18dd 0000 0de4 0000     A...............
   190bc:	f49b ffff fe32 ffff 0392 0000 ffc8 ffff     ....2...........
   190cc:	3396 0000 d566 ffff e9af ffff 1662 0000     .3..f.......b...
   190dc:	0334 0000 f82a ffff 00f6 0000 016a 0000     4...*.......j...
   190ec:	3ec2 0000 2124 0000 d739 ffff faf5 ffff     .>..$!..9.......
   190fc:	0fcc 0000 fd9d ffff fc1d ffff 0130 0000     ............0...
   1910c:	e3d1 ffff 46fb 0000 07c2 0000 e1ef ffff     .....F..........
   1911c:	0510 0000 0856 0000 fc49 ffff feff ffff     ....V...I.......
   1912c:	a61d ffff fb8c ffff 3819 0000 f65b ffff     .........8..[...
   1913c:	ef4a ffff 0843 0000 026b 0000 fdc1 ffff     J...C...k.......
   1914c:	f839 ffff a442 ffff 1476 0000 214d 0000     9...B...v...M!..
   1915c:	efb9 ffff faeb ffff 0676 0000 ff86 ffff     ........v.......
   1916c:	707b 0000 d6bd ffff c2a6 ffff 2020 0000     {p..........  ..
   1917c:	0b87 0000 f213 ffff 0208 0000 026d 0000     ............m...
   1918c:	42fb 0000 63de 0000 c275 ffff e794 ffff     .B...c..u.......
   1919c:	1d42 0000 fc42 ffff f9e2 ffff 0310 0000     B...B...........
   191ac:	8922 ffff 6e54 0000 2f92 0000 c44f ffff     "...Tn.../..O...
   191bc:	061d 0000 0edf 0000 f7e5 ffff 0120 0000     ............ ...
   191cc:	62c5 ffff b090 ffff 755d 0000 f73a ffff     .b......]u..:...
   191dc:	dd1b ffff 1333 0000 fd6d ffff ffa5 ffff     ....3...m.......
   191ec:	5c2d 0000 2aa7 ffff 0b25 0000 506a 0000     -\...*..%...jP..
   191fc:	d42d ffff 05b8 0000 01e1 0000 004d 0000     -...........M...
   1920c:	342e 0001 f1c8 ffff 4b52 ffff 633e 0000     .4......RK..>c..
   1921c:	f3ba ffff fa65 ffff ffdd ffff 0128 0000     ....e.......(...
   1922c:	1b75 0000 81f6 0001 1ebd ffff 1a00 0000     u...............
   1923c:	0f2d 0000 fecc ffff fcc0 ffff 002e 0000     -...............
   1924c:	3905 fffd 05d8 0002 c6c6 ffff d76e ffff     .9..........n...
   1925c:	05df 0000 0726 0000 ff01 ffff fed3 ffff     ....&...........
   1926c:	108c fffb 932e 0000 6e6d 0000 ebe7 ffff     ........mn......
   1927c:	f09e ffff 0353 0000 031e 0000 ff74 ffff     ....S.......t...
   1928c:	d2eb fffb 8158 fffe 391c 0000 22aa 0000     ....X....9..."..
   1929c:	f658 ffff f99a ffff 01f0 0000 0109 0000     X...............
   192ac:	c58d fffe ebd8 fffd 6c82 ffff 1303 0000     .........l......
   192bc:	0bd0 0000 fac2 ffff fd78 ffff 00d3 0000     ........x.......
   192cc:	189e 0001 2fab ffff 13c5 ffff c05d ffff     ...../......]...
   192dc:	0675 0000 03be 0000 fd48 ffff ff38 ffff     u.......H...8...
   192ec:	1e48 0001 a5b4 0000 9c5b ffff 982f ffff     H.......[.../...
   192fc:	e3ec ffff 0223 0000 00eb 0000 fee6 ffff     ....#...........
   1930c:	d8de ffff cbbf 0000 56b0 0000 d4ca ffff     .........V......
   1931c:	d2a8 ffff f3ae ffff 0094 0000 ffff ffff     ................
   1932c:	401e ffff f1e7 ffff 704c 0000 2c1c 0000     .@......Lp...,..
   1933c:	ee36 ffff ec64 ffff faca ffff ffea ffff     6...d...........
   1934c:	d220 ffff 7136 ffff fb43 ffff 3862 0000      ...6q..C...b8..
   1935c:	1622 0000 f8e9 ffff f7d6 ffff fdf9 ffff     "...............
   1936c:	7649 0000 d00d ffff ae00 ffff fd7e ffff     Iv..........~...
   1937c:	1b0e 0000 0ad6 0000 fd4e ffff fce8 ffff     ........N.......
   1938c:	4ec2 0000 5599 0000 dfbe ffff d4eb ffff     .N...U..........
   1939c:	fe3a ffff 0c8a 0000 051b 0000 feca ffff     :...............
   193ac:	c4e7 ffff 4660 0000 305a 0000 edc4 ffff     ....`F..Z0......
   193bc:	ea72 ffff fea2 ffff 05c4 0000 01a5 0000     r...............
   193cc:	ac9f ffff d99a ffff 2da7 0000 18d8 0000     .........-......
   193dc:	f6fd ffff f546 ffff ff73 ffff 021b 0000     ....F...s.......
   193ec:	0f63 0000 b854 ffff edb0 ffff 18fa 0000     c...T...........
   193fc:	0ce2 0000 fb80 ffff fb1a ffff fffa ffff     ................
   1940c:	4bd3 0000 0086 0000 d4c4 ffff f6c0 ffff     .K..............
   1941c:	0d48 0000 064c 0000 fdd3 ffff fe54 ffff     H...L.......T...
   1942c:	16cd 0000 38d4 0000 fdad ffff e79b ffff     .....8..........
   1943c:	fbb5 ffff 06ae 0000 02c8 0000 ff22 ffff     ............"...
   1944c:	d1f0 ffff 15d7 0000 2315 0000 fd08 ffff     .........#......
   1945c:	f338 ffff fe19 ffff 031b 0000 00e2 0000     8...............
   1946c:	e1e5 ffff da71 ffff 10fe 0000 1318 0000     ....q...........
   1947c:	fdbc ffff f9b6 ffff ff40 ffff 0121 0000     ........@...!...
   1948c:	1fad 0000 e063 ffff ea23 ffff 0b21 0000     ....c...#...!...
   1949c:	098f 0000 feaa ffff fd25 ffff ffd4 ffff     ........%.......
   194ac:	27f0 0000 154d 0000 e8d9 ffff f539 ffff     .'..M.......9...
   194bc:	0648 0000 0490 0000 ff4b ffff ff04 ffff     H.......K.......
   194cc:	f36d ffff 25a2 0000 094c 0000 f22e ffff     m....%..L.......
   194dc:	fb04 ffff 0338 0000 0204 0000 ffb0 ffff     ....8...........
   194ec:	d4f4 ffff fd93 ffff 185b 0000 033a 0000     ........[...:...
   194fc:	f8ae ffff fdbe ffff 0186 0000 00aa 0000     ................
   1950c:	f69a ffff dce6 ffff 02bd 0000 0d42 0000     ............B...
   1951c:	0103 0000 fc61 ffff ff0c ffff 0092 0000     ....a...........
   1952c:	220b 0000 f14d ffff ebc8 ffff 031a 0000     ."..M...........
   1953c:	06a3 0000 0050 0000 fe57 ffff ffb9 ffff     ....P...W.......
   1954c:	192f 0000 17e1 0000 f414 ffff f5e3 ffff     /...............
   1955c:	020f 0000 032d 0000 0011 0000 ff69 ffff     ....-.......i...
   1956c:	eea4 ffff 187f 0000 0bfe 0000 f8a3 ffff     ................
   1957c:	fb35 ffff 0121 0000 016b 0000 fffa ffff     5...!...k.......
   1958c:	e19b ffff f72e ffff 1017 0000 0556 0000     ............V...
   1959c:	fc0b ffff fdc9 ffff 0091 0000 007a 0000     ............z...
   195ac:	0017 0000 e698 ffff fd55 ffff 08e4 0000     ........U.......
   195bc:	0251 0000 fe08 ffff ff0c ffff 0039 0000     Q...........9...
   195cc:	1a0f 0000 fb50 ffff f0de ffff ff97 ffff     ....P...........
   195dc:	047e 0000 0103 0000 ff17 ffff ffb2 ffff     ~...............
   195ec:	0c74 0000 1379 0000 fb0f ffff f829 ffff     t...y.......)...
   195fc:	001a 0000 022a 0000 0068 0000 ffaa ffff     ....*...h.......
   1960c:	efc4 ffff 0d50 0000 0a93 0000 fca4 ffff     ....P...........
   1961c:	fc2f ffff 0022 0000 00fa 0000 001d 0000     /..."...........
   1962c:	eda5 ffff f5c4 ffff 093d 0000 051d 0000     ........=.......
   1963c:	fe1e ffff fe33 ffff 0019 0000 0058 0000     ....3.......X...
   1964c:	0508 0000 efd6 ffff fb5d ffff 0549 0000     ........]...I...
   1965c:	0262 0000 ff0b ffff ff34 ffff 000f 0000     b.......4.......
   1966c:	11e7 0000 0108 0000 f5f5 ffff fe20 ffff     ............ ...
   1967c:	02bd 0000 0118 0000 ff8b ffff ffbc ffff     ................
   1968c:	042c 0000 0e2c 0000 ff37 ffff fa9d ffff     ,...,...7.......
   1969c:	ff3f ffff 0158 0000 0077 0000 ffd4 ffff     ?...X...w.......
   196ac:	f2d5 ffff 05c3 0000 0828 0000 ff11 ffff     ........(.......
   196bc:	fd4e ffff ffb1 ffff 009d 0000 0026 0000     N...........&...
   196cc:	f659 ffff f6b3 ffff 047c 0000 0424 0000     Y.......|...$...
   196dc:	ff61 ffff feb6 ffff ffe3 ffff 0039 0000     a...........9...
   196ec:	06aa 0000 f6ca ffff fb2d ffff 02bd 0000     ........-.......
   196fc:	0200 0000 ffa8 ffff ff6b ffff fff9 ffff     ........k.......
   1970c:	0b42 0000 039e 0000 f9f2 ffff fdc2 ffff     B...............
   1971c:	0178 0000 00ef 0000 ffd4 ffff ffce ffff     x...............
   1972c:	ff8e ffff 097d 0000 0149 0000 fca0 ffff     ....}...I.......
   1973c:	fefd ffff 00bb 0000 0067 0000 ffed ffff     ........g.......
   1974c:	f63c ffff 0153 0000 05bd 0000 0056 0000     <...S.......V...
   1975c:	fe47 ffff ff8c ffff 0057 0000 0022 0000     G.......W..."...
   1976c:	fbdd ffff f88d ffff 0192 0000 0306 0000     ................
   1977c:	000f 0000 ff29 ffff ffcf ffff 0020 0000     ....)....... ...
   1978c:	0665 0000 fb6c ffff fbdb ffff 011f 0000     e...l...........
   1979c:	017d 0000 ffff ffff ffa0 ffff fff2 ffff     }...............
   197ac:	067e 0000 0439 0000 fcbc ffff fdf4 ffff     ~...9...........
   197bc:	00a5 0000 00b6 0000 fffc ffff ffde ffff     ................
   197cc:	fd8f ffff 05de 0000 0205 0000 fe17 ffff     ................
   197dc:	ff0a ffff 0055 0000 0051 0000 fffd ffff     ....U...Q.......
   197ec:	f954 ffff ff1f ffff 03b8 0000 00dc 0000     T...............
   197fc:	ff00 ffff ff8f ffff 0028 0000 001b 0000     ........(.......
   1980c:	fefa ffff fa98 ffff 0003 0000 0207 0000     ................
   1981c:	005b 0000 ff82 ffff ffd0 ffff 000f 0000     [...............
   1982c:	0537 0000 fe3b ffff fcd5 ffff 0035 0000     7...;.......5...
   1983c:	0105 0000 0027 0000 ffc7 ffff fff0 ffff     ....'...........
   1984c:	034d 0000 03c9 0000 fe84 ffff fe60 ffff     M...........`...
   1985c:	002b 0000 007d 0000 000f 0000 ffeb ffff     +...}...........
   1986c:	fd17 ffff 0346 0000 0201 0000 ff10 ffff     ....F...........
   1987c:	ff37 ffff 001a 0000 0038 0000 0005 0000     7.......8.......
   1988c:	fbd4 ffff fe4c ffff 0234 0000 00f2 0000     ....L...4.......
   1989c:	ff7e ffff ffa2 ffff 000d 0000 0013 0000     ~...............
   198ac:	008a 0000 fc69 ffff ff52 ffff 013e 0000     ....i...R...>...
   198bc:	006f 0000 ffbe ffff ffd7 ffff 0006 0000     o...............
   198cc:	03cf 0000 ffc8 ffff fdce ffff ffc5 ffff     ................
   198dc:	00a3 0000 0032 0000 ffe2 ffff fff3 ffff     ....2...........
   198ec:	0152 0000 02f5 0000 ff90 ffff fed6 ffff     R...............
   198fc:	ffed ffff 004f 0000 0015 0000 fff5 ffff     ....O...........
   1990c:	fd60 ffff 0192 0000 01aa 0000 ffa7 ffff     `...............
   1991c:	ff6d ffff fffa ffff 0023 0000 0006 0000     m.......#.......
   1992c:	fda6 ffff fe38 ffff 0128 0000 00d4 0000     ....8...(.......
   1993c:	ffcc ffff ffba ffff fffe ffff 000c 0000     ................
   1994c:	0123 0000 fdd4 ffff ff1f ffff 00ae 0000     #...............
   1995c:	0064 0000 ffe5 ffff ffe1 ffff 0000 0000     d...............
   1996c:	028a 0000 0083 0000 fe9c ffff ff9d ffff     ................
   1997c:	005c 0000 002d 0000 fff3 ffff fff5 ffff     \...-...........
   1998c:	0036 0000 0216 0000 001b 0000 ff3d ffff     6...........=...
   1999c:	ffd5 ffff 002e 0000 0013 0000 fffc ffff     ................
   199ac:	fdef ffff 008a 0000 013b 0000 fffa ffff     ........;.......
   199bc:	ff9d ffff ffed ffff 0014 0000 0006 0000     ................
   199cc:	fedc ffff fe7b ffff 007d 0000 00a4 0000     ....{...}.......
   199dc:	fff8 ffff ffd1 ffff fff9 ffff 0007 0000     ................
   199ec:	013a 0000 fed4 ffff ff2e ffff 0052 0000     :...........R...
   199fc:	0050 0000 fffa ffff ffea ffff fffd ffff     P...............
   19a0c:	018b 0000 00c1 0000 ff33 ffff ff9c ffff     ........3.......
   19a1c:	002d 0000 0025 0000 fffd ffff fff9 ffff     -...%...........
   19a2c:	ffac ffff 015a 0000 0053 0000 ff8b ffff     ....Z...S.......
   19a3c:	ffd1 ffff 0017 0000 000f 0000 ffff ffff     ................
   19a4c:	fe89 ffff fffc ffff 00d5 0000 0021 0000     ............!...
   19a5c:	ffc4 ffff ffeb ffff 000a 0000 0004 0000     ................
   19a6c:	ff99 ffff fed8 ffff 001c 0000 0072 0000     ............r...
   19a7c:	000d 0000 ffe2 ffff fff8 ffff 0003 0000     ................
   19a8c:	010e 0000 ff7a ffff ff57 ffff 0019 0000     ....z...W.......
   19a9c:	0039 0000 0005 0000 fff3 ffff fffd ffff     9...............
   19aac:	00d6 0000 00bc 0000 ff9a ffff ffab ffff     ................
   19abc:	0010 0000 001b 0000 0002 0000 fffc ffff     ................
   19acc:	ff7d ffff 00cb 0000 005f 0000 ffc3 ffff     }......._.......
   19adc:	ffd8 ffff 0008 0000 000c 0000 0001 0000     ................
   19aec:	ff0c ffff ffbe ffff 0084 0000 002b 0000     ............+...
   19afc:	ffe0 ffff ffee ffff 0004 0000 0003 0000     ................
   19b0c:	ffff ffff ff35 ffff ffea ffff 0049 0000     ....5.......I...
   19b1c:	0014 0000 fff0 ffff fff9 ffff 0001 0000     ................
   19b2c:	00cf 0000 ffda ffff ff87 ffff fffd ffff     ................
   19b3c:	0025 0000 0008 0000 fff9 ffff ffff ffff     %...............
   19b4c:	0062 0000 009b 0000 ffd9 ffff ffc1 ffff     b...............
   19b5c:	0000 0000 0012 0000 0002 0000 fffe ffff     ................
   19b6c:	ff7f ffff 0069 0000 0054 0000 ffe5 ffff     ....i...T.......
   19b7c:	ffe1 ffff 0001 0000 0008 0000 0001 0000     ................
   19b8c:	ff6f ffff ffad ffff 0049 0000 0029 0000     o.......I...)...
   19b9c:	fff2 ffff fff2 ffff 0001 0000 0002 0000     ................
   19bac:	002d 0000 ff7f ffff ffda ffff 002a 0000     -...........*...
   19bbc:	0013 0000 fff9 ffff fffa ffff ffff ffff     ................
   19bcc:	0090 0000 000b 0000 ffb0 ffff fff1 ffff     ................
   19bdc:	0016 0000 0008 0000 fffe ffff ffff ffff     ................
   19bec:	001e 0000 0072 0000 fffb ffff ffd5 ffff     ....r...........
   19bfc:	fffa ffff 000b 0000 0003 0000 ffff ffff     ................
   19c0c:	ff96 ffff 002c 0000 0042 0000 fffa ffff     ....,...B.......
   19c1c:	ffeb ffff fffd ffff 0005 0000 0000 0000     ................
   19c2c:	ffb5 ffff ffb4 ffff 0023 0000 0020 0000     ........#... ...
   19c3c:	fffc ffff fff6 ffff ffff ffff 0001 0000     ................
   19c4c:	0038 0000 ffb7 ffff ffda ffff 0015 0000     8...............
   19c5c:	000f 0000 fffd ffff fffc ffff ffff ffff     ................
   19c6c:	005b 0000 001f 0000 ffcf ffff ffed ffff     [...............
   19c7c:	000b 0000 0006 0000 0000 0000 ffff ffff     ................
   19c8c:	fffa ffff 004d 0000 000c 0000 ffe5 ffff     ....M...........
   19c9c:	fff8 ffff 0005 0000 0001 0000 0000 0000     ................
   19cac:	ffb0 ffff 0009 0000 002e 0000 0003 0000     ................
   19cbc:	fff2 ffff fffd ffff 0002 0000 0000 0000     ................
   19ccc:	ffe1 ffff ffc3 ffff 000b 0000 0018 0000     ................
   19cdc:	0001 0000 fffa ffff ffff ffff 0001 0000     ................
   19cec:	0034 0000 ffdc ffff ffdf ffff 0009 0000     4...............
   19cfc:	000b 0000 0000 0000 fffd ffff 0000 0000     ................
   19d0c:	0034 0000 0023 0000 ffe7 ffff fff0 ffff     4...#...........
   19d1c:	0004 0000 0005 0000 0001 0000 0000 0000     ................
   19d2c:	ffee ffff 0008 0000 000b 0000 fffe ffff     ................
   19d3c:	fffd ffff 0000 0000 0001 0000 0000 0000     ................

00019d4c <H_ACC_LUT3_011>:
   19d4c:	ffc0 ffff 0008 0000 0023 0000 fff9 ffff     ........#.......
   19d5c:	fff8 ffff 0003 0000 0001 0000 0000 0000     ................
   19d6c:	ffe9 ffff ffc8 ffff 0013 0000 0012 0000     ................
   19d7c:	fff7 ffff fffd ffff 0003 0000 0000 0000     ................
   19d8c:	003d 0000 ffd8 ffff ffe2 ffff 0013 0000     =...............
   19d9c:	0005 0000 fffa ffff ffff ffff 0000 0000     ................
   19dac:	003e 0000 002c 0000 ffd8 ffff fff6 ffff     >...,...........
   19dbc:	000e 0000 0000 0000 fffd ffff ffff ffff     ................
   19dcc:	ffd8 ffff 0047 0000 000e 0000 ffe4 ffff     ....G...........
   19ddc:	0000 0000 0007 0000 ffff ffff 0000 0000     ................
   19dec:	ffa2 ffff fff2 ffff 0037 0000 fffd ffff     ........7.......
   19dfc:	fff0 ffff 0004 0000 0001 0000 ffff ffff     ................
   19e0c:	fffc ffff ffa5 ffff 000b 0000 0020 0000     ............ ...
   19e1c:	fff6 ffff fffa ffff 0004 0000 0000 0000     ................
   19e2c:	006b 0000 ffdd ffff ffc8 ffff 0015 0000     k...............
   19e3c:	000c 0000 fff8 ffff ffff ffff 0002 0000     ................
   19e4c:	0040 0000 0056 0000 ffd3 ffff ffe8 ffff     @...V...........
   19e5c:	0013 0000 0003 0000 fffb ffff 0000 0000     ................
   19e6c:	ffa6 ffff 0058 0000 002b 0000 ffd9 ffff     ....X...+.......
   19e7c:	fffb ffff 000c 0000 0000 0000 ffff ffff     ................
   19e8c:	ff82 ffff ffca ffff 004d 0000 000a 0000     ........M.......
   19e9c:	ffe7 ffff 0002 0000 0005 0000 ffff ffff     ................
   19eac:	0026 0000 ff7a ffff fff8 ffff 0033 0000     &...z.......3...
   19ebc:	fff9 ffff fff4 ffff 0005 0000 0000 0000     ................
   19ecc:	00a9 0000 fff7 ffff ffa1 ffff 0011 0000     ................
   19edc:	0019 0000 fff6 ffff fffc ffff 0003 0000     ................
   19eec:	002e 0000 0098 0000 ffd5 ffff ffce ffff     ................
   19efc:	0017 0000 0009 0000 fff9 ffff 0000 0000     ................
   19f0c:	ff55 ffff 005f 0000 0057 0000 ffd1 ffff     U..._...W.......
   19f1c:	ffee ffff 0011 0000 0002 0000 fffd ffff     ................
   19f2c:	ff6a ffff ff82 ffff 0063 0000 0021 0000     j.......c...!...
   19f3c:	ffdb ffff fffe ffff 0008 0000 ffff ffff     ................
   19f4c:	0078 0000 ff4b ffff ffd0 ffff 004a 0000     x...K.......J...
   19f5c:	0002 0000 ffeb ffff 0003 0000 0002 0000     ................
   19f6c:	00f3 0000 0032 0000 ff70 ffff 0001 0000     ....2...p.......
   19f7c:	002c 0000 fff6 ffff fff8 ffff 0003 0000     ,...............
   19f8c:	fff7 ffff 00f0 0000 ffec ffff ffaa ffff     ................
   19f9c:	0016 0000 0012 0000 fff7 ffff ffff ffff     ................
   19fac:	fedf ffff 0048 0000 009c 0000 ffce ffff     ....H...........
   19fbc:	ffd9 ffff 0016 0000 0005 0000 fffc ffff     ................
   19fcc:	ff6c ffff ff0f ffff 006e 0000 004a 0000     l.......n...J...
   19fdc:	ffd0 ffff fff5 ffff 000e 0000 0000 0000     ................
   19fec:	0101 0000 ff26 ffff ff84 ffff 0063 0000     ....&.......c...
   19ffc:	0014 0000 ffe0 ffff 0001 0000 0005 0000     ................
   1a00c:	013b 0000 00a5 0000 ff3c ffff ffdf ffff     ;.......<.......
   1a01c:	0043 0000 fffd ffff fff1 ffff 0003 0000     C...............
   1a02c:	ff7d ffff 015a 0000 0027 0000 ff79 ffff     }...Z...'...y...
   1a03c:	000c 0000 0023 0000 fff6 ffff fffd ffff     ....#...........
   1a04c:	fe46 ffff fffa ffff 00fc 0000 ffde ffff     F...............
   1a05c:	ffb8 ffff 0018 0000 000b 0000 fffa ffff     ................
   1a06c:	ffa9 ffff fe67 ffff 005d 0000 008a 0000     ....g...].......
   1a07c:	ffca ffff ffe5 ffff 0013 0000 0002 0000     ................
   1a08c:	01d7 0000 ff27 ffff ff0c ffff 0074 0000     ....'.......t...
   1a09c:	0036 0000 ffd4 ffff fffa ffff 0009 0000     6...............
   1a0ac:	0168 0000 0167 0000 ff0d ffff ff9c ffff     h...g...........
   1a0bc:	005d 0000 0008 0000 ffe7 ffff 0002 0000     ]...............
   1a0cc:	fe9d ffff 01c5 0000 0099 0000 ff41 ffff     ............A...
   1a0dc:	fff1 ffff 0038 0000 fff8 ffff fff8 ffff     ....8...........
   1a0ec:	fd98 ffff ff52 ffff 0172 0000 000d 0000     ....R...r.......
   1a0fc:	ff8b ffff 0013 0000 0018 0000 fff8 ffff     ................
   1a10c:	0050 0000 fd8c ffff 0015 0000 00e7 0000     P...............
   1a11c:	ffd0 ffff ffcb ffff 0017 0000 0007 0000     ................
   1a12c:	02fe 0000 ff76 ffff fe59 ffff 0071 0000     ....v...Y...q...
   1a13c:	006d 0000 ffca ffff fff0 ffff 000d 0000     m...............
   1a14c:	0147 0000 0294 0000 ff00 ffff ff2f ffff     G.........../...
   1a15c:	0075 0000 0022 0000 ffdc ffff ffff ffff     u..."...........
   1a16c:	fd30 ffff 020c 0000 0163 0000 ff0a ffff     0.......c.......
   1a17c:	ffbf ffff 0052 0000 0000 0000 fff1 ffff     ....R...........
   1a18c:	fcf5 ffff fe18 ffff 01f1 0000 006f 0000     ............o...
   1a19c:	ff53 ffff 0005 0000 002b 0000 fff9 ffff     S.......+.......
   1a1ac:	01a3 0000 fc8d ffff ff6e ffff 015e 0000     ........n...^...
   1a1bc:	ffef ffff ffa2 ffff 0018 0000 000d 0000     ................
   1a1cc:	0478 0000 005a 0000 fd6b ffff 003c 0000     x...Z...k...<...
   1a1dc:	00c2 0000 ffc8 ffff ffdc ffff 000f 0000     ................
   1a1ec:	0086 0000 043c 0000 ff42 ffff fe87 ffff     ....<...B.......
   1a1fc:	007f 0000 004f 0000 ffd0 ffff fff9 ffff     ....O...........
   1a20c:	fb0d ffff 01e8 0000 029f 0000 feeb ffff     ................
   1a21c:	ff63 ffff 006d 0000 0011 0000 ffe9 ffff     c...m...........
   1a22c:	fcaf ffff fc14 ffff 024f 0000 0123 0000     ........O...#...
   1a23c:	ff15 ffff ffdf ffff 0042 0000 fffd ffff     ........B.......
   1a24c:	03fd 0000 fb9f ffff fe2f ffff 01e6 0000     ......../.......
   1a25c:	003a 0000 ff6c ffff 0010 0000 0019 0000     :...l...........
   1a26c:	0610 0000 0235 0000 fc4d ffff ffb2 ffff     ....5...M.......
   1a27c:	0133 0000 ffd6 ffff ffbc ffff 0012 0000     3...............
   1a28c:	fea1 ffff 0658 0000 001c 0000 fd9b ffff     ....X...........
   1a29c:	0064 0000 0095 0000 ffc7 ffff ffed ffff     d...............
   1a2ac:	f824 ffff 00dc 0000 0468 0000 ff0c ffff     $.......h.......
   1a2bc:	fecf ffff 0084 0000 0033 0000 ffe0 ffff     ........3.......
   1a2cc:	fd54 ffff f907 ffff 0245 0000 0249 0000     T.......E...I...
   1a2dc:	fee2 ffff ff97 ffff 005e 0000 0006 0000     ........^.......
   1a2ec:	07c4 0000 fb30 ffff fc12 ffff 0260 0000     ....0.......`...
   1a2fc:	00cb 0000 ff2b ffff fff9 ffff 0029 0000     ....+.......)...
   1a30c:	075d 0000 0591 0000 fb2e ffff fe9c ffff     ]...............
   1a31c:	01c0 0000 0007 0000 ff8c ffff 0010 0000     ................
   1a32c:	fade ffff 08b1 0000 01ff 0000 fc72 ffff     ............r...
   1a33c:	0006 0000 00fd 0000 ffc9 ffff ffda ffff     ................
   1a34c:	f489 ffff fe2e ffff 06c4 0000 ffb1 ffff     ................
   1a35c:	fdf5 ffff 0084 0000 0067 0000 ffd9 ffff     ........g.......
   1a36c:	ffce ffff f4c2 ffff 0159 0000 0403 0000     ........Y.......
   1a37c:	fed8 ffff ff20 ffff 007b 0000 0016 0000     .... ...{.......
   1a38c:	0d70 0000 fbff ffff f8c5 ffff 0292 0000     p...............
   1a39c:	01c3 0000 fee9 ffff ffc8 ffff 003c 0000     ............<...
   1a3ac:	0799 0000 0b12 0000 fa6e ffff fcb4 ffff     ........n.......
   1a3bc:	0255 0000 006d 0000 ff53 ffff 0005 0000     U...m...S.......
   1a3cc:	f449 ffff 0ad8 0000 0573 0000 fb28 ffff     I.......s...(...
   1a3dc:	ff37 ffff 0183 0000 ffe2 ffff ffbe ffff     7...............
   1a3ec:	f083 ffff f8ea ffff 0994 0000 0134 0000     ............4...
   1a3fc:	fcd7 ffff 0054 0000 00b8 0000 ffd5 ffff     ....T...........
   1a40c:	053d 0000 ef41 ffff fee4 ffff 0659 0000     =...A.......Y...
   1a41c:	ff2e ffff fe6c ffff 0088 0000 0035 0000     ....l.......5...
   1a42c:	1540 0000 ff04 ffff f41f ffff 0219 0000     @...............
   1a43c:	033c 0000 febf ffff ff73 ffff 004e 0000     <.......s...N...
   1a44c:	05c2 0000 132c 0000 fab3 ffff f9bc ffff     ....,...........
   1a45c:	02bd 0000 0127 0000 ff16 ffff ffeb ffff     ....'...........
   1a46c:	ea42 ffff 0be4 0000 0af8 0000 fa15 ffff     B...............
   1a47c:	fdbc ffff 0214 0000 0026 0000 ff9b ffff     ........&.......
   1a48c:	ed03 ffff f033 ffff 0c53 0000 040b 0000     ....3...S.......
   1a49c:	fb95 ffff ffc8 ffff 0122 0000 ffe3 ffff     ........".......
   1a4ac:	0ec8 0000 e937 ffff fa14 ffff 091b 0000     ....7...........
   1a4bc:	003c 0000 fd79 ffff 006e 0000 0065 0000     <...y...n...e...
   1a4cc:	1e91 0000 0596 0000 ee67 ffff 004d 0000     ........g...M...
   1a4dc:	053e 0000 feeb ffff fee7 ffff 0058 0000     >...........X...
   1a4ec:	0038 0000 1d8c 0000 fd19 ffff f5a9 ffff     8...............
   1a4fc:	0286 0000 025f 0000 feee ffff ffb4 ffff     ...._...........
   1a50c:	dceb ffff 0a25 0000 12a4 0000 fa17 ffff     ....%...........
   1a51c:	fb43 ffff 027e 0000 00c1 0000 ff6f ffff     C...~.......o...
   1a52c:	ebe9 ffff e3f0 ffff 0d76 0000 08c0 0000     ........v.......
   1a53c:	fa9e ffff fe7d ffff 01ae 0000 0012 0000     ....}...........
   1a54c:	1c4a 0000 e51f ffff f203 ffff 0b59 0000     J...........Y...
   1a55c:	02c8 0000 fc3f ffff fff9 ffff 00bc 0000     ....?...........
   1a56c:	25d4 0000 10e7 0000 e976 ffff fbb2 ffff     .%......v.......
   1a57c:	07ca 0000 ffe0 ffff fdec ffff 0056 0000     ............V...
   1a58c:	f53d ffff 2672 0000 0469 0000 f098 ffff     =...r&..i.......
   1a59c:	00aa 0000 0488 0000 fede ffff ff4e ffff     ............N...
   1a5ac:	d23e ffff 005a 0000 1bd1 0000 fd61 ffff     >...Z.......a...
   1a5bc:	f6d4 ffff 02b1 0000 01e0 0000 ff34 ffff     ............4...
   1a5cc:	f6b9 ffff d5ec ffff 081f 0000 1152 0000     ............R...
   1a5dc:	fa19 ffff fc06 ffff 026f 0000 0069 0000     ........o...i...
   1a5ec:	2d28 0000 edff ffff e2a6 ffff 0c96 0000     (-..............
   1a5fc:	07c8 0000 fa84 ffff ff10 ffff 013c 0000     ............<...
   1a60c:	18bf 0000 2b12 0000 e723 ffff f21c ffff     .....+..#.......
   1a61c:	0b65 0000 01ce 0000 fc6e ffff 0038 0000     e.......n...8...
   1a62c:	cc6a ffff 2a9a 0000 1651 0000 e99e ffff     j....*..Q.......
   1a63c:	fccc ffff 07d6 0000 ff0a ffff fe96 ffff     ................
   1a64c:	c13e ffff dedc ffff 28c7 0000 050b 0000     >........(......
   1a65c:	f034 ffff 0263 0000 03e3 0000 fed0 ffff     4...c...........
   1a66c:	1c2f 0000 b905 ffff f83e ffff 1e11 0000     /.......>.......
   1a67c:	faf0 ffff f7aa ffff 03b7 0000 0101 0000     ................
   1a68c:	59e3 0000 0474 0000 c7e7 ffff 09a5 0000     .Y..t...........
   1a69c:	10b6 0000 f7bd ffff fd95 ffff 023f 0000     ............?...
   1a6ac:	07c7 0000 5bbe 0000 eb8a ffff deb3 ffff     .....[..........
   1a6bc:	1047 0000 0515 0000 f98a ffff 007a 0000     G...........z...
   1a6cc:	8f85 ffff 2943 0000 3d5a 0000 dfe0 ffff     ....C)..Z=......
   1a6dc:	f479 ffff 0ded 0000 fdf8 ffff fd93 ffff     y...............
   1a6ec:	bd05 ffff 9c22 ffff 3d8b 0000 186c 0000     ...."....=..l...
   1a6fc:	e2be ffff 03be 0000 061e 0000 fcf0 ffff     ................
   1a70c:	76de 0000 91ac ffff d06e ffff 3bb1 0000     .v......n....;..
   1a71c:	f9e3 ffff f121 ffff 081b 0000 fee0 ffff     ....!...........
   1a72c:	9d3b 0000 4f70 0000 8aa3 ffff 08c6 0000     ;...pO..........
   1a73c:	22e5 0000 eccd ffff 0293 0000 005b 0000     ."..........[...
   1a74c:	a3d3 ffff d559 0000 f4db ffff af96 ffff     ....Y...........
   1a75c:	2bd3 0000 fa48 ffff fe1f ffff ffb3 ffff     .+..H...........
   1a76c:	cbd2 fffe 0e38 0000 b4ae 0000 9cc2 ffff     ....8...........
   1a77c:	0c46 0000 059b 0000 0023 0000 fed8 ffff     F.......#.......
   1a78c:	e48b ffff 7e0a fffe e143 0000 e600 ffff     .....~..C.......
   1a79c:	f0d3 ffff 0134 0000 0340 0000 ffd2 ffff     ....4...@.......
   1a7ac:	c6fb 0002 fa28 fffd 393a 0000 2892 0000     ....(...:9...(..
   1a7bc:	fa21 ffff f8da ffff 00ff 0000 012d 0000     !...........-...
   1a7cc:	ef74 0004 6cd2 ffff 9193 ffff 1419 0000     t....l..........
   1a7dc:	0f62 0000 fcad ffff fce2 ffff 008c 0000     b...............
   1a7ec:	2d15 0004 7ea8 0001 c6e4 ffff dd56 ffff     .-...~......V...
   1a7fc:	09a8 0000 0666 0000 fe10 ffff fef7 ffff     ....f...........
   1a80c:	3a73 0001 1428 0002 937e 0000 ecfd ffff     s:..(...~.......
   1a81c:	f430 ffff 053e 0000 0288 0000 ff2d ffff     0...>.......-...
   1a82c:	e762 fffe d055 0000 ec3b 0000 3fa3 0000     b...U...;....?..
   1a83c:	f98b ffff fc42 ffff 02b8 0000 00c8 0000     ....B...........
   1a84c:	e1b8 fffe 5a4c ffff 63a5 0000 67d1 0000     ....LZ...c...g..
   1a85c:	1c14 0000 fddd ffff ff15 ffff 011a 0000     ................
   1a86c:	2722 0000 3441 ffff a950 ffff 2b36 0000     "'..A4..P...6+..
   1a87c:	2d58 0000 0c52 0000 ff6c ffff 0001 0000     X-..R...l.......
   1a88c:	bfe2 0000 0e19 0000 8fb4 ffff d3e4 ffff     ................
   1a89c:	11ca 0000 139c 0000 0536 0000 0016 0000     ........6.......
   1a8ac:	2de0 0000 8eca 0000 04bd 0000 c79e ffff     .-..............
   1a8bc:	e9de ffff 0717 0000 082a 0000 0207 0000     ........*.......
   1a8cc:	89b7 ffff 2ff3 0000 5200 0000 0282 0000     ...../...R......
   1a8dc:	e4f2 ffff f52a ffff 02b2 0000 0318 0000     ....*...........
   1a8ec:	b13e ffff aa67 ffff 2042 0000 2b15 0000     >...g...B ...+..
   1a8fc:	01c6 0000 f376 ffff fae5 ffff 0136 0000     ....v.......6...
   1a90c:	3b19 0000 b9a0 ffff cfa6 ffff 123c 0000     .;..........<...
   1a91c:	158e 0000 015e 0000 fa3c ffff fe5b ffff     ....^...<...[...
   1a92c:	5361 0000 2666 0000 d259 ffff e728 ffff     aS..f&..Y...(...
   1a93c:	0903 0000 0aba 0000 008d 0000 fde5 ffff     ................
   1a94c:	f09d ffff 47ac 0000 1250 0000 e706 ffff     .....G..P.......
   1a95c:	f31e ffff 0480 0000 04e6 0000 0006 0000     ................
   1a96c:	b42d ffff ff7a ffff 2b3c 0000 0940 0000     -...z...<+..@...
   1a97c:	f2b8 ffff f9b4 ffff 022d 0000 01ac 0000     ........-.......
   1a98c:	e933 ffff c72c ffff 0253 0000 1865 0000     3...,...S...e...
   1a99c:	044b 0000 f952 ffff fd38 ffff 00de 0000     K...R...8.......
   1a9ac:	2e10 0000 ea29 ffff dceb ffff 02f8 0000     ....)...........
   1a9bc:	0cc8 0000 01e7 0000 fce5 ffff ff1e ffff     ................
   1a9cc:	1e1b 0000 258f 0000 ef02 ffff ece8 ffff     .....%..........
   1a9dc:	0244 0000 064a 0000 00c0 0000 fedf ffff     D...J...........
   1a9ec:	e053 ffff 1f9d 0000 15dd 0000 f4df ffff     S...............
   1a9fc:	f671 ffff 0156 0000 02db 0000 002c 0000     q...V.......,...
   1aa0c:	d810 ffff eab3 ffff 1727 0000 0ac7 0000     ........'.......
   1aa1c:	f9b8 ffff fb70 ffff 00b5 0000 00fc 0000     ....p...........
   1aa2c:	0c93 0000 da5e ffff f6b4 ffff 0dd2 0000     ....^...........
   1aa3c:	04fc 0000 fcc8 ffff fdfc ffff 0050 0000     ............P...
   1aa4c:	2b0c 0000 026d 0000 e7a5 ffff fcc6 ffff     .+..m...........
   1aa5c:	0752 0000 0242 0000 fe7a ffff ff56 ffff     R...B...z...V...
   1aa6c:	0966 0000 231a 0000 fd43 ffff f2be ffff     f....#..C.......
   1aa7c:	fefd ffff 039f 0000 00f4 0000 ff6e ffff     ............n...
   1aa8c:	ddf5 ffff 0eb3 0000 1438 0000 fce6 ffff     ........8.......
   1aa9c:	f95d ffff ffb0 ffff 01a9 0000 0047 0000     ]...........G...
   1aaac:	e6d1 ffff e81f ffff 0bec 0000 0a1d 0000     ................
   1aabc:	fdf1 ffff fcd3 ffff ffef ffff 0097 0000     ................
   1aacc:	115c 0000 e781 ffff f402 ffff 075d 0000     \...........]...
   1aadc:	04cb 0000 fedf ffff fe95 ffff 0006 0000     ................
   1aaec:	1e65 0000 08d2 0000 efe9 ffff faaa ffff     e...............
   1aafc:	03f5 0000 0237 0000 ff6f ffff ff86 ffff     ....7...o.......
   1ab0c:	ffe9 ffff 1968 0000 02ab 0000 f71c ffff     ....h...........
   1ab1c:	fdaf ffff 01f8 0000 00f4 0000 ffc7 ffff     ................
   1ab2c:	e5f1 ffff 04b0 0000 0f22 0000 0069 0000     ........"...i...
   1ab3c:	fb82 ffff fefd ffff 00e9 0000 004e 0000     ............N...
   1ab4c:	f38c ffff ec87 ffff 04f1 0000 07d7 0000     ................
   1ab5c:	ffe6 ffff fdd6 ffff ff98 ffff 0056 0000     ............V...
   1ab6c:	103c 0000 f2b0 ffff f56d ffff 035c 0000     <.......m...\...
   1ab7c:	03d1 0000 ffde ffff ff06 ffff ffe3 ffff     ................
   1ab8c:	125b 0000 0a3c 0000 f6c3 ffff fae3 ffff     [...<...........
   1ab9c:	01e2 0000 01cd 0000 ffe7 ffff ffa8 ffff     ................
   1abac:	faf8 ffff 102a 0000 04a3 0000 fab7 ffff     ....*...........
   1abbc:	fd9e ffff 00f5 0000 00cc 0000 fff1 ffff     ................
   1abcc:	ee19 ffff fef8 ffff 0a0b 0000 01e0 0000     ................
   1abdc:	fd43 ffff fee8 ffff 0075 0000 0044 0000     C.......u...D...
   1abec:	fbd4 ffff f1d4 ffff 00c9 0000 0563 0000     ............c...
   1abfc:	00c1 0000 fea8 ffff ff89 ffff 002c 0000     ............,...
   1ac0c:	0d2b 0000 fa3d ffff f7d8 ffff 00ef 0000     +...=...........
   1ac1c:	02b2 0000 004f 0000 ff63 ffff ffda ffff     ....O...c.......
   1ac2c:	09a7 0000 094d 0000 fb84 ffff fbdc ffff     ....M...........
   1ac3c:	009f 0000 014a 0000 001d 0000 ffc7 ffff     ....J...........
   1ac4c:	f956 ffff 0936 0000 04d3 0000 fd43 ffff     V...6.......C...
   1ac5c:	fe00 ffff 0058 0000 0095 0000 0007 0000     ....X...........
   1ac6c:	f4be ffff fc62 ffff 060e 0000 023e 0000     ....b.......>...
   1ac7c:	fe88 ffff ff11 ffff 002c 0000 0032 0000     ........,...2...
   1ac8c:	0072 0000 f683 ffff feb7 ffff 0360 0000     r...........`...
   1ac9c:	0103 0000 ff45 ffff ff99 ffff 0013 0000     ....E...........
   1acac:	09c4 0000 fead ffff fa43 ffff ffaa ffff     ........C.......
   1acbc:	01b9 0000 0074 0000 ffa9 ffff ffde ffff     ....t...........
   1accc:	0423 0000 0773 0000 fe6e ffff fcfa ffff     #...s...n.......
   1acdc:	fff1 ffff 00d7 0000 0031 0000 ffe0 ffff     ........1.......
   1acec:	f99b ffff 0494 0000 0425 0000 fee1 ffff     ........%.......
   1acfc:	fe83 ffff 0001 0000 0060 0000 000e 0000     ........`.......
   1ad0c:	f982 ffff fbc7 ffff 0344 0000 020c 0000     ........D.......
   1ad1c:	ff5b ffff ff4a ffff 0004 0000 0022 0000     [...J......."...
   1ad2c:	0271 0000 fa22 ffff fdfb ffff 01e9 0000     q..."...........
   1ad3c:	00f6 0000 ffab ffff ffaf ffff 0003 0000     ................
   1ad4c:	06ac 0000 00e1 0000 fc48 ffff ff24 ffff     ........H...$...
   1ad5c:	0100 0000 0071 0000 ffd8 ffff ffe5 ffff     ....q...........
   1ad6c:	0106 0000 0568 0000 fffd ffff fdf9 ffff     ....h...........
   1ad7c:	ffa5 ffff 007e 0000 0030 0000 fff1 ffff     ....~...0.......
   1ad8c:	fac9 ffff 01c5 0000 032b 0000 ffcb ffff     ........+.......
   1ad9c:	fefb ffff ffd9 ffff 0039 0000 0010 0000     ........9.......
   1adac:	fcb3 ffff fc37 ffff 017c 0000 01a0 0000     ....7...|.......
   1adbc:	ffd5 ffff ff83 ffff fff1 ffff 0015 0000     ................
   1adcc:	02e9 0000 fcba ffff fdff ffff 00f0 0000     ................
   1addc:	00c9 0000 ffe6 ffff ffc8 ffff fffb ffff     ................
   1adec:	042c 0000 01b4 0000 fdcc ffff ff0e ffff     ,...............
   1adfc:	0082 0000 005e 0000 fff3 ffff ffed ffff     ....^...........
   1ae0c:	ff76 ffff 0397 0000 00ae 0000 fec2 ffff     v...............
   1ae1c:	ff91 ffff 0042 0000 0029 0000 fffa ffff     ....B...).......
   1ae2c:	fc31 ffff 0038 0000 0232 0000 003b 0000     1...8...2...;...
   1ae3c:	ff5d ffff ffce ffff 001e 0000 000d 0000     ]...............
   1ae4c:	feae ffff fd0b ffff 0070 0000 012a 0000     ........p...*...
   1ae5c:	0013 0000 ffb1 ffff ffeb ffff 000b 0000     ................
   1ae6c:	02a0 0000 fe6e ffff fe56 ffff 0059 0000     ....n...V...Y...
   1ae7c:	0093 0000 0006 0000 ffdd ffff fffa ffff     ................
   1ae8c:	025a 0000 01c8 0000 fed8 ffff ff2c ffff     Z...........,...
   1ae9c:	0034 0000 0046 0000 0002 0000 fff4 ffff     4...F...........
   1aeac:	fedd ffff 022c 0000 00e1 0000 ff52 ffff     ....,.......R...
   1aebc:	ff9c ffff 001b 0000 001f 0000 0000 0000     ................
   1aecc:	fd76 ffff ff7d ffff 0164 0000 0063 0000     v...}...d...c...
   1aedc:	ffa4 ffff ffd3 ffff 000d 0000 000b 0000     ................
   1aeec:	ffca ffff fdea ffff ffe5 ffff 00c3 0000     ................
   1aefc:	002b 0000 ffd2 ffff ffed ffff 0004 0000     +...............
   1af0c:	0211 0000 ff76 ffff fec5 ffff 0006 0000     ....v...........
   1af1c:	0063 0000 0013 0000 ffec ffff fffa ffff     c...............
   1af2c:	0124 0000 0185 0000 ff83 ffff ff5c ffff     $...........\...
   1af3c:	0008 0000 002f 0000 0007 0000 fff9 ffff     ..../...........
   1af4c:	fec6 ffff 012c 0000 00d2 0000 ffae ffff     ....,...........
   1af5c:	ffb0 ffff 0006 0000 0016 0000 0003 0000     ................
   1af6c:	fe75 ffff ff3f ffff 00cd 0000 0064 0000     u...?.......d...
   1af7c:	ffd3 ffff ffdb ffff 0003 0000 0007 0000     ................
   1af8c:	0054 0000 fea6 ffff ffad ffff 0075 0000     T...........u...
   1af9c:	002f 0000 ffe9 ffff fff1 ffff 0001 0000     /...............
   1afac:	0177 0000 0004 0000 ff2b ffff ffdf ffff     w.......+.......
   1afbc:	003c 0000 0015 0000 fff6 ffff fffc ffff     <...............
   1afcc:	0067 0000 0128 0000 ffe4 ffff ff8e ffff     g...(...........
   1afdc:	fff3 ffff 001e 0000 0008 0000 fffd ffff     ................
   1afec:	fef2 ffff 0086 0000 00a9 0000 ffe7 ffff     ................
   1affc:	ffc7 ffff fffb ffff 000d 0000 0003 0000     ................
   1b00c:	ff2a ffff ff44 ffff 0066 0000 0055 0000     *...D...f...U...
   1b01c:	fff0 ffff ffe5 ffff fffe ffff 0004 0000     ................
   1b02c:	0083 0000 ff35 ffff ffa1 ffff 003d 0000     ....5.......=...
   1b03c:	0028 0000 fff8 ffff fff4 ffff ffff ffff     (...............
   1b04c:	00f4 0000 0042 0000 ff7c ffff ffd5 ffff     ....B...|.......
   1b05c:	0020 0000 0012 0000 fffc ffff fffd ffff      ...............
   1b06c:	0001 0000 00cb 0000 0016 0000 ffb7 ffff     ................
   1b07c:	ffec ffff 0010 0000 0007 0000 ffff ffff     ................
   1b08c:	ff31 ffff 0026 0000 0079 0000 0003 0000     1...&...y.......
   1b09c:	ffdb ffff fff8 ffff 0007 0000 0001 0000     ................
   1b0ac:	ff9e ffff ff65 ffff 0027 0000 003f 0000     ....e...'...?...
   1b0bc:	0000 0000 ffee ffff fffe ffff 0002 0000     ................
   1b0cc:	0081 0000 ff97 ffff ffac ffff 001b 0000     ................
   1b0dc:	001f 0000 ffff ffff fff8 ffff ffff ffff     ................
   1b0ec:	0091 0000 0053 0000 ffb7 ffff ffd7 ffff     ....S...........
   1b0fc:	000e 0000 000e 0000 ffff ffff fffe ffff     ................
   1b10c:	ffd3 ffff 0081 0000 0026 0000 ffd6 ffff     ........&.......
   1b11c:	ffed ffff 0007 0000 0006 0000 0001 0000     ................
   1b12c:	ff70 ffff fff5 ffff 0050 0000 000f 0000     p.......P.......
   1b13c:	ffea ffff fff8 ffff 0002 0000 0001 0000     ................
   1b14c:	ffe2 ffff ff8e ffff 0005 0000 002b 0000     ............+...
   1b15c:	0006 0000 fff5 ffff fffd ffff 0001 0000     ................
   1b16c:	006a 0000 ffd4 ffff ffbe ffff 0006 0000     j...............
   1b17c:	0015 0000 0003 0000 fffb ffff 0000 0000     ................
   1b18c:	004b 0000 004c 0000 ffdd ffff ffe0 ffff     K...L...........
   1b19c:	0004 0000 000a 0000 0001 0000 ffff ffff     ................
   1b1ac:	ffc8 ffff 0049 0000 0026 0000 ffeb ffff     ....I...&.......
   1b1bc:	fff1 ffff 0003 0000 0004 0000 0001 0000     ................
   1b1cc:	ffa5 ffff ffe1 ffff 0031 0000 0013 0000     ........1.......
   1b1dc:	fff5 ffff fffa ffff 0000 0000 0001 0000     ................
   1b1ec:	0006 0000 ffb3 ffff fff4 ffff 001b 0000     ................
   1b1fc:	0008 0000 fffb ffff ffff ffff 0000 0000     ................
   1b20c:	0050 0000 fff7 ffff ffd2 ffff fffd ffff     P...............
   1b21c:	000e 0000 0003 0000 fffe ffff 0000 0000     ................
   1b22c:	001f 0000 003d 0000 fff5 ffff ffe8 ffff     ....=...........
   1b23c:	ffff ffff 0006 0000 0001 0000 ffff ffff     ................
   1b24c:	ffcc ffff 0024 0000 0021 0000 fff7 ffff     ....$...!.......
   1b25c:	fff5 ffff 0000 0000 0003 0000 0000 0000     ................
   1b26c:	ffcc ffff ffdd ffff 0019 0000 0010 0000     ................
   1b27c:	fffc ffff fffb ffff ffff ffff 0000 0000     ................
   1b28c:	0012 0000 fff8 ffff fff5 ffff 0002 0000     ................
   1b29c:	0003 0000 0000 0000 ffff ffff 0000 0000     ................

0001b2ac <H_ACC_LUT3_010>:
   1b2ac:	001c 0000 ffe8 ffff fff3 ffff 000b 0000     ................
   1b2bc:	0002 0000 fffd ffff 0001 0000 0000 0000     ................
   1b2cc:	0023 0000 0012 0000 ffeb ffff fffc ffff     #...............
   1b2dc:	0007 0000 ffff ffff ffff ffff 0000 0000     ................
   1b2ec:	fff1 ffff 0026 0000 0004 0000 fff1 ffff     ....&...........
   1b2fc:	0001 0000 0004 0000 ffff ffff 0000 0000     ................
   1b30c:	ffd0 ffff 0000 0000 001c 0000 fffc ffff     ................
   1b31c:	fff8 ffff 0002 0000 0001 0000 ffff ffff     ................
   1b32c:	fff6 ffff ffd3 ffff 000a 0000 0010 0000     ................
   1b33c:	fffa ffff fffd ffff 0001 0000 0000 0000     ................
   1b34c:	0034 0000 ffe8 ffff ffe5 ffff 000d 0000     4...............
   1b35c:	0006 0000 fffc ffff ffff ffff 0001 0000     ................
   1b36c:	0028 0000 0027 0000 ffe5 ffff fff6 ffff     (...'...........
   1b37c:	000a 0000 0002 0000 fffe ffff 0000 0000     ................
   1b38c:	ffd9 ffff 0033 0000 0012 0000 ffeb ffff     ....3...........
   1b39c:	fffe ffff 0006 0000 ffff ffff 0000 0000     ................
   1b3ac:	ffbc ffff ffec ffff 0029 0000 0002 0000     ........).......
   1b3bc:	fff3 ffff 0003 0000 0003 0000 0000 0000     ................
   1b3cc:	000a 0000 ffba ffff 0003 0000 0019 0000     ................
   1b3dc:	fffb ffff fffa ffff 0002 0000 0001 0000     ................
   1b3ec:	0056 0000 fff0 ffff ffd1 ffff 000c 0000     V...............
   1b3fc:	000d 0000 fffa ffff ffff ffff 0001 0000     ................
   1b40c:	0026 0000 004a 0000 ffe4 ffff ffe9 ffff     &...J...........
   1b41c:	000d 0000 0004 0000 fffd ffff 0000 0000     ................
   1b42c:	ffb1 ffff 003b 0000 0027 0000 ffe5 ffff     ....;...'.......
   1b43c:	fff9 ffff 0008 0000 0000 0000 ffff ffff     ................
   1b44c:	ffa8 ffff ffca ffff 0037 0000 000c 0000     ........7.......
   1b45c:	ffed ffff 0001 0000 0005 0000 0000 0000     ................
   1b46c:	002f 0000 ff9d ffff ffef ffff 0027 0000     /...........'...
   1b47c:	fffe ffff fff5 ffff 0002 0000 0001 0000     ................
   1b48c:	0080 0000 000a 0000 ffb7 ffff 0007 0000     ................
   1b49c:	0015 0000 fffa ffff fffc ffff 0001 0000     ................
   1b4ac:	0010 0000 0079 0000 ffea ffff ffd6 ffff     ....y...........
   1b4bc:	000e 0000 0009 0000 fffb ffff fffe ffff     ................
   1b4cc:	ff73 ffff 0036 0000 004a 0000 ffe1 ffff     s...6...J.......
   1b4dc:	fff0 ffff 000c 0000 0002 0000 ffff ffff     ................
   1b4ec:	ffa1 ffff ff90 ffff 0042 0000 0020 0000     ........B... ...
   1b4fc:	ffe6 ffff fffc ffff 0007 0000 ffff ffff     ................
   1b50c:	0071 0000 ff82 ffff ffcc ffff 0036 0000     q...........6...
   1b51c:	0007 0000 fff0 ffff 0003 0000 0002 0000     ................
   1b52c:	00ae 0000 003f 0000 ff96 ffff fff8 ffff     ....?...........
   1b53c:	0022 0000 fffb ffff fff8 ffff 0002 0000     "...............
   1b54c:	ffd9 ffff 00b6 0000 0002 0000 ffbd ffff     ................
   1b55c:	000c 0000 0010 0000 fffb ffff ffff ffff     ................
   1b56c:	ff1f ffff 001b 0000 007e 0000 ffe3 ffff     ........~.......
   1b57c:	ffdf ffff 000f 0000 0005 0000 fffd ffff     ................
   1b58c:	ffb1 ffff ff38 ffff 0041 0000 0041 0000     ....8...A...A...
   1b59c:	ffe0 ffff fff5 ffff 000a 0000 0001 0000     ................
   1b5ac:	00de 0000 ff74 ffff ff90 ffff 0044 0000     ....t.......D...
   1b5bc:	0016 0000 ffe8 ffff ffff ffff 0004 0000     ................
   1b5cc:	00d5 0000 009d 0000 ff75 ffff ffd8 ffff     ........u.......
   1b5dc:	0032 0000 0001 0000 fff3 ffff 0002 0000     2...............
   1b5ec:	ff71 ffff 00fb 0000 0038 0000 ff9a ffff     q.......8.......
   1b5fc:	0002 0000 001c 0000 fffa ffff fffd ffff     ................
   1b60c:	feb6 ffff ffcf ffff 00c1 0000 fff6 ffff     ................
   1b61c:	ffc7 ffff 000e 0000 000b 0000 fffc ffff     ................
   1b62c:	fff3 ffff febf ffff 0029 0000 0071 0000     ........)...q...
   1b63c:	ffdf ffff ffe8 ffff 000c 0000 0002 0000     ................
   1b64c:	017e 0000 ff88 ffff ff34 ffff 0049 0000     ~.......4...I...
   1b65c:	0031 0000 ffe1 ffff fffa ffff 0006 0000     1...............
   1b66c:	00de 0000 0138 0000 ff61 ffff ffa3 ffff     ....8...a.......
   1b67c:	0042 0000 000d 0000 ffed ffff 0001 0000     B...............
   1b68c:	feba ffff 0136 0000 0099 0000 ff77 ffff     ....6.......w...
   1b69c:	ffe9 ffff 002a 0000 fffc ffff fff9 ffff     ....*...........
   1b6ac:	fe49 ffff ff3c ffff 0110 0000 0023 0000     I...<.......#...
   1b6bc:	ffa7 ffff 000a 0000 0014 0000 fffd ffff     ................
   1b6cc:	008e 0000 fe28 ffff ffe1 ffff 00b4 0000     ....(...........
   1b6dc:	ffe9 ffff ffd2 ffff 000e 0000 0005 0000     ................
   1b6ec:	0251 0000 ffe2 ffff feb1 ffff 003b 0000     Q...........;...
   1b6fc:	005d 0000 ffdd ffff fff1 ffff 0009 0000     ]...............
   1b70c:	009f 0000 0219 0000 ff6e ffff ff4c ffff     ........n...L...
   1b71c:	004d 0000 0022 0000 ffe6 ffff fffd ffff     M..."...........
   1b72c:	fda0 ffff 0148 0000 0139 0000 ff5a ffff     ....H...9...Z...
   1b73c:	ffbe ffff 003c 0000 0004 0000 fff5 ffff     ....<...........
   1b74c:	fdfa ffff fe3e ffff 0158 0000 0077 0000     ....>...X...w...
   1b75c:	ff81 ffff fff9 ffff 0022 0000 fffb ffff     ........".......
   1b76c:	01ad 0000 fd8a ffff ff4d ffff 0105 0000     ........M.......
   1b77c:	0009 0000 ffb5 ffff 000d 0000 000b 0000     ................
   1b78c:	034b 0000 00b8 0000 fe0b ffff 0003 0000     K...............
   1b79c:	009b 0000 ffdf ffff ffe0 ffff 000b 0000     ................
   1b7ac:	ffd5 ffff 0347 0000 ffbf ffff fed0 ffff     ....G...........
   1b7bc:	004a 0000 0046 0000 ffe0 ffff fff9 ffff     J...F...........
   1b7cc:	fc0c ffff 00f3 0000 0229 0000 ff56 ffff     ........)...V...
   1b7dc:	ff73 ffff 004c 0000 0014 0000 fff0 ffff     s...L...........
   1b7ec:	fe0b ffff fcac ffff 0178 0000 0109 0000     ........x.......
   1b7fc:	ff5c ffff ffd7 ffff 0031 0000 ffff ffff     \.......1.......
   1b80c:	0390 0000 fd14 ffff fe46 ffff 0158 0000     ........F...X...
   1b81c:	004d 0000 ff90 ffff 0005 0000 0014 0000     M...............
   1b82c:	043c 0000 024f 0000 fd55 ffff ff83 ffff     <...O...U.......
   1b83c:	00ea 0000 fff1 ffff ffc8 ffff 000a 0000     ................
   1b84c:	fe1e ffff 04b0 0000 0094 0000 fe28 ffff     ............(...
   1b85c:	0027 0000 007d 0000 ffdd ffff ffef ffff     '...}...........
   1b86c:	fa03 ffff ffd5 ffff 0374 0000 ff90 ffff     ........t.......
   1b87c:	ff02 ffff 0055 0000 002e 0000 ffea ffff     ....U...........
   1b88c:	fef4 ffff fa65 ffff 0135 0000 01ee 0000     ....e...5.......
   1b89c:	ff46 ffff ff9d ffff 0043 0000 0008 0000     F.......C.......
   1b8ac:	067d 0000 fd24 ffff fc98 ffff 0193 0000     }...$...........
   1b8bc:	00c5 0000 ff66 ffff ffed ffff 001f 0000     ....f...........
   1b8cc:	04c2 0000 050c 0000 fcb7 ffff fe97 ffff     ................
   1b8dc:	0148 0000 0020 0000 ffa7 ffff 0008 0000     H... ...........
   1b8ec:	faf0 ffff 0623 0000 0237 0000 fd60 ffff     ....#...7...`...
   1b8fc:	ffcd ffff 00c7 0000 ffe2 ffff ffe0 ffff     ................
   1b90c:	f799 ffff fd64 ffff 0518 0000 0036 0000     ....d.......6...
   1b91c:	fe63 ffff 0049 0000 0059 0000 ffe5 ffff     c...I...Y.......
   1b92c:	0161 0000 f750 ffff 0033 0000 0334 0000     a...P...3...4...
   1b93c:	ff57 ffff ff3f ffff 0052 0000 0016 0000     W...?...R.......
   1b94c:	0abd 0000 fe46 ffff fa1a ffff 0186 0000     ....F...........
   1b95c:	0187 0000 ff40 ffff ffc6 ffff 002b 0000     ....@.......+...
   1b96c:	0457 0000 0953 0000 fc80 ffff fd15 ffff     W...S...........
   1b97c:	019c 0000 0078 0000 ff80 ffff fffd ffff     ....x...........
   1b98c:	f5b6 ffff 073e 0000 04ff 0000 fc99 ffff     ....>...........
   1b99c:	ff1a ffff 011f 0000 fffd ffff ffcc ffff     ................
   1b9ac:	f512 ffff f912 ffff 06e7 0000 018a 0000     ................
   1b9bc:	fda1 ffff 0013 0000 0092 0000 ffe7 ffff     ................
   1b9cc:	05f6 0000 f396 ffff fdfa ffff 04d5 0000     ................
   1b9dc:	ffbe ffff febc ffff 0052 0000 002f 0000     ........R.../...
   1b9ec:	1031 0000 0129 0000 f6c9 ffff 00e3 0000     1...)...........
   1b9fc:	029d 0000 ff3c ffff ff82 ffff 0035 0000     ....<.......5...
   1ba0c:	0228 0000 0f33 0000 fd32 ffff fadf ffff     (...3...2.......
   1ba1c:	01b8 0000 010d 0000 ff60 ffff ffe5 ffff     ........`.......
   1ba2c:	ee3d ffff 073e 0000 0925 0000 fc27 ffff     =...>...%...'...
   1ba3c:	fde8 ffff 0171 0000 003f 0000 ffb6 ffff     ....q...?.......
   1ba4c:	f352 ffff f270 ffff 0857 0000 03d1 0000     R...p...W.......
   1ba5c:	fce6 ffff ff89 ffff 00dc 0000 fffa ffff     ................
   1ba6c:	0d43 0000 eff9 ffff fa1a ffff 067b 0000     C...........{...
   1ba7c:	00c7 0000 fe16 ffff 0027 0000 0057 0000     ........'...W...
   1ba8c:	161d 0000 067a 0000 f33c ffff ff16 ffff     ....z...<.......
   1ba9c:	03fc 0000 ff91 ffff ff0e ffff 0034 0000     ............4...
   1baac:	fd98 ffff 15bd 0000 ffc7 ffff f81d ffff     ................
   1babc:	0120 0000 020d 0000 ff55 ffff ffb0 ffff      .......U.......
   1bacc:	e612 ffff 04af 0000 0e40 0000 fd06 ffff     ........@.......
   1badc:	fbe4 ffff 0190 0000 00d0 0000 ff92 ffff     ................
   1baec:	f46d ffff eaa0 ffff 0783 0000 07a0 0000     m...............
   1bafc:	fc98 ffff fe4c ffff 014a 0000 0022 0000     ....L...J..."...
   1bb0c:	156c 0000 f034 ffff f3ad ffff 073b 0000     l...4.......;...
   1bb1c:	0346 0000 fd1b ffff ffbc ffff 0098 0000     F...............
   1bb2c:	15f9 0000 0fa0 0000 f1b7 ffff fa62 ffff     ............b...
   1bb3c:	0605 0000 0070 0000 fe4b ffff 002b 0000     ....p...K...+...
   1bb4c:	f2f2 ffff 1787 0000 0808 0000 f418 ffff     ................
   1bb5c:	ff6a ffff 03be 0000 ff5e ffff ff5a ffff     j.......^...Z...
   1bb6c:	e541 ffff f684 ffff 1577 0000 0032 0000     A.......w...2...
   1bb7c:	f871 ffff 018c 0000 01c4 0000 ff68 ffff     q...........h...
   1bb8c:	0af4 0000 de46 ffff 0185 0000 0e3c 0000     ....F.......<...
   1bb9c:	fc98 ffff fc3a ffff 01d6 0000 0076 0000     ....:.......v...
   1bbac:	2dd2 0000 fbd0 ffff e75f ffff 0721 0000     .-......_...!...
   1bbbc:	076a 0000 fbdd ffff fee1 ffff 010c 0000     j...............
   1bbcc:	0ee3 0000 28fb 0000 f2b2 ffff f259 ffff     .....(......Y...
   1bbdc:	086a 0000 0244 0000 fcf1 ffff 001b 0000     j...D...........
   1bbec:	d22f ffff 1aee 0000 1905 0000 f01f ffff     /...............
   1bbfc:	fb94 ffff 06a9 0000 ff65 ffff feb3 ffff     ........e.......
   1bc0c:	d92b ffff da94 ffff 1ea6 0000 0923 0000     +...........#...
   1bc1c:	f2d5 ffff 0173 0000 038c 0000 fedc ffff     ....s...........
   1bc2c:	28e5 0000 cb27 ffff f03e ffff 1a28 0000     .(..'...>...(...
   1bc3c:	fddd ffff f871 ffff 038e 0000 00c1 0000     ....q...........
   1bc4c:	471f 0000 16c8 0000 cf0d ffff 0376 0000     .G..........v...
   1bc5c:	1052 0000 f8aa ffff fe82 ffff 024e 0000     R...........N...
   1bc6c:	eb9a ffff 5394 0000 fa10 ffff de49 ffff     .....S......I...
   1bc7c:	0ea5 0000 0447 0000 fa1d ffff 01f2 0000     ....G...........
   1bc8c:	9249 ffff 0c3c 0000 4241 0000 e3de ffff     I...<...AB......
   1bc9c:	f49d ffff 0e3b 0000 fb17 ffff 00a1 0000     ....;...........
   1bcac:	e75b ffff 8a0d ffff 341f 0000 1d1a 0000     [........4......
   1bcbc:	dee1 ffff 0b82 0000 fef1 ffff 0033 0000     ............3...
   1bccc:	a262 0000 a596 ffff b96e ffff 4c26 0000     b.......n...&L..
   1bcdc:	e5fc ffff 01cf 0000 0033 0000 00aa 0000     ........3.......
   1bcec:	8175 0000 9f30 0000 52b3 ffff 3a3e 0000     u...0....R..>:..
   1bcfc:	fd4f ffff fe52 ffff fe86 ffff 0090 0000     O...R...........
   1bd0c:	cd57 fffe 855c 0001 7ce0 ffff 0276 0000     W...\....|..v...
   1bd1c:	064d 0000 028c 0000 fe4b ffff ffa5 ffff     M.......K.......
   1bd2c:	954a fffc 304a 0001 03cb 0000 ebfd ffff     J...J0..........
   1bd3c:	fc12 ffff 041d 0000 00c2 0000 ff56 ffff     ............V...
   1bd4c:	d2eb fffb bb30 ffff 391c 0000 0572 0000     ....0....9..r...
   1bd5c:	f658 ffff fef6 ffff 01f0 0000 002d 0000     X...........-...
   1bd6c:	40cf fffd 88f4 fffe d724 ffff 1319 0000     .@......$.......
   1bd7c:	005c 0000 fb8c ffff ffd4 ffff 00b5 0000     \...............
   1bd8c:	844c ffff af2f fffe 5dab ffff eb65 ffff     L.../....]..e...
   1bd9c:	0607 0000 ff24 ffff fdfe ffff 000a 0000     ....$...........
   1bdac:	b848 0000 c2ee ffff 6865 ffff b86d ffff     H.......eh..m...
   1bdbc:	f5ca ffff 01a9 0000 ff25 ffff ff48 ffff     ........%...H...
   1bdcc:	6aaa 0000 7f8d 0000 e894 ffff bdb2 ffff     .j..............
   1bddc:	e066 ffff fb18 ffff 003e 0000 ff81 ffff     f.......>.......
   1bdec:	b4f0 ffff 514d 0000 4752 0000 f8cc ffff     ....MQ..RG......
   1bdfc:	e382 ffff f22e ffff fdba ffff ffd0 ffff     ................
   1be0c:	a29c ffff cce2 ffff 2e5f 0000 2506 0000     ........_....%..
   1be1c:	fea0 ffff f3f1 ffff fa2c ffff fef5 ffff     ........,.......
   1be2c:	13d1 0000 b54d ffff e382 ffff 1778 0000     ....M.......x...
   1be3c:	1286 0000 003e 0000 fb16 ffff fdba ffff     ....>...........
   1be4c:	4a9e 0000 0883 0000 d326 ffff f0cd ffff     .J......&.......
   1be5c:	0b2a 0000 08f2 0000 007b 0000 fe08 ffff     *.......{.......
   1be6c:	0c7d 0000 3aca 0000 02c2 0000 e7cc ffff     }....:..........
   1be7c:	f81c ffff 0500 0000 043e 0000 fff9 ffff     ........>.......
   1be8c:	cbad ffff 0fec 0000 2377 0000 00ae 0000     ........w#......
   1be9c:	f3e1 ffff fbce ffff 025d 0000 0171 0000     ........]...q...
   1beac:	e351 ffff d7b6 ffff 0cc4 0000 12be 0000     Q...............
   1bebc:	0098 0000 f9e6 ffff fe20 ffff 00ec 0000     ........ .......
   1becc:	20c1 0000 e286 ffff e9d4 ffff 072a 0000     . ..........*...
   1bedc:	09ee 0000 003a 0000 fd2b ffff ff70 ffff     ....:...+...p...
   1beec:	27bd 0000 1380 0000 ed87 ffff f3c7 ffff     .'..............
   1befc:	0417 0000 04ee 0000 0004 0000 fefe ffff     ................
   1bf0c:	fa92 ffff 1eb7 0000 0b3f 0000 f4e2 ffff     ........?.......
   1bf1c:	f9d4 ffff 0229 0000 023b 0000 ffee ffff     ....)...;.......
   1bf2c:	e3e5 ffff fc07 ffff 1464 0000 0566 0000     ........d...f...
   1bf3c:	f9e6 ffff fd10 ffff 010e 0000 00c1 0000     ................
   1bf4c:	ff93 ffff e5e9 ffff ff75 ffff 0bcf 0000     ........u.......
   1bf5c:	025d 0000 fcec ffff feb7 ffff 006a 0000     ]...........j...
   1bf6c:	1b3e 0000 fad9 ffff ef03 ffff 00ed 0000     >...............
   1bf7c:	062a 0000 0106 0000 fe91 ffff ff98 ffff     *...............
   1bf8c:	0bc3 0000 1630 0000 f9ce ffff f6ca ffff     ....0...........
   1bf9c:	00ea 0000 0304 0000 0068 0000 ff7c ffff     ........h...|...
   1bfac:	eb4a ffff 0ea5 0000 0c6f 0000 fb72 ffff     J.......o...r...
   1bfbc:	fb6c ffff 0092 0000 015e 0000 001a 0000     l.......^.......
   1bfcc:	eab4 ffff f27c ffff 0b07 0000 05fa 0000     ....|...........
   1bfdc:	fd55 ffff fdd1 ffff 0050 0000 007a 0000     U.......P...z...
   1bfec:	0829 0000 ec29 ffff f9fe ffff 0690 0000     )...)...........
   1bffc:	02bb 0000 fe9c ffff ff09 ffff 0025 0000     ............%...
   1c00c:	1729 0000 024b 0000 f362 ffff fdb9 ffff     )...K...b.......
   1c01c:	0375 0000 013b 0000 ff55 ffff ffaf ffff     u...;...U.......
   1c02c:	0476 0000 129d 0000 ff40 ffff f935 ffff     v.......@...5...
   1c03c:	ff2b ffff 01b5 0000 0083 0000 ffc0 ffff     +...............
   1c04c:	ee11 ffff 072a 0000 0aa7 0000 fed0 ffff     ....*...........
   1c05c:	fc9f ffff ffb1 ffff 00c7 0000 0028 0000     ............(...
   1c06c:	f349 ffff f36c ffff 05c9 0000 0558 0000     I...l.......X...
   1c07c:	ff2b ffff fe64 ffff ffe6 ffff 0047 0000     +...d.......G...
   1c08c:	091f 0000 f3ba ffff f998 ffff 0391 0000     ................
   1c09c:	028a 0000 ff89 ffff ff49 ffff fffc ffff     ........I.......
   1c0ac:	0f40 0000 04d5 0000 f7f3 ffff fd17 ffff     @...............
   1c0bc:	01e8 0000 012e 0000 ffc4 ffff ffc2 ffff     ................
   1c0cc:	ff8c ffff 0cca 0000 01a1 0000 fb8e ffff     ................
   1c0dc:	feb5 ffff 00f2 0000 0082 0000 ffe7 ffff     ................
   1c0ec:	f2d1 ffff 0202 0000 07a3 0000 0063 0000     ............c...
   1c0fc:	fdc0 ffff ff6d ffff 0071 0000 002a 0000     ....m...q...*...
   1c10c:	fa12 ffff f618 ffff 023f 0000 03fb 0000     ........?.......
   1c11c:	000c 0000 fee9 ffff ffc4 ffff 0029 0000     ............)...
   1c12c:	0853 0000 f99c ffff fa91 ffff 018e 0000     S...............
   1c13c:	01f3 0000 fffc ffff ff83 ffff ffee ffff     ................
   1c14c:	08ec 0000 055c 0000 fb89 ffff fd57 ffff     ....\.......W...
   1c15c:	00e1 0000 00ec 0000 fff9 ffff ffd4 ffff     ................
   1c16c:	fd2b ffff 07eb 0000 0282 0000 fd6d ffff     +...........m...
   1c17c:	fec0 ffff 0073 0000 0069 0000 fffa ffff     ....s...i.......
   1c18c:	f727 ffff ff29 ffff 04f6 0000 010e 0000     '...)...........
   1c19c:	fea9 ffff ff6c ffff 0037 0000 0023 0000     ....l...7...#...
   1c1ac:	fe4a ffff f8ec ffff 0031 0000 02af 0000     J.......1.......
   1c1bc:	0070 0000 ff58 ffff ffc1 ffff 0015 0000     p...X...........
   1c1cc:	06b2 0000 fd6c ffff fbe2 ffff 005c 0000     ....l.......\...
   1c1dc:	0158 0000 002f 0000 ffb2 ffff ffec ffff     X.../...........
   1c1ec:	0488 0000 04cf 0000 fded ffff fde4 ffff     ................
   1c1fc:	0043 0000 00a5 0000 0013 0000 ffe5 ffff     C...............
   1c20c:	fc6a ffff 0469 0000 0289 0000 feb6 ffff     j...i...........
   1c21c:	fefb ffff 0026 0000 004b 0000 0004 0000     ....&...K.......
   1c22c:	fa7d ffff fdf3 ffff 02f0 0000 0132 0000     }...........2...
   1c23c:	ff4d ffff ff85 ffff 0015 0000 001a 0000     M...............
   1c24c:	0083 0000 fb4c ffff ff35 ffff 01a7 0000     ....L...5.......
   1c25c:	008b 0000 ffa7 ffff ffca ffff 000a 0000     ................
   1c26c:	04ee 0000 ff8f ffff fd22 ffff ffc0 ffff     ........".......
   1c27c:	00d9 0000 003e 0000 ffd6 ffff ffee ffff     ....>...........
   1c28c:	01db 0000 03ce 0000 ff57 ffff fe7b ffff     ........W...{...
   1c29c:	ffee ffff 0069 0000 0019 0000 fff1 ffff     ....i...........
   1c2ac:	fca8 ffff 0223 0000 0224 0000 ff80 ffff     ....#...$.......
   1c2bc:	ff40 ffff fffb ffff 0030 0000 0007 0000     @.......0.......
   1c2cc:	fcde ffff fdc0 ffff 018d 0000 010f 0000     ................
   1c2dc:	ffb5 ffff ffa4 ffff 0000 0000 0011 0000     ................
   1c2ec:	0165 0000 fd21 ffff fee7 ffff 00eb 0000     e...!...........
   1c2fc:	0081 0000 ffd9 ffff ffd7 ffff 0002 0000     ................
   1c30c:	0353 0000 0095 0000 fe2a ffff ff86 ffff     S.......*.......
   1c31c:	007b 0000 003b 0000 ffed ffff fff3 ffff     {...;...........
   1c32c:	005d 0000 02b8 0000 0015 0000 ff00 ffff     ]...............
   1c33c:	ffcb ffff 003c 0000 001a 0000 fff9 ffff     ....<...........
   1c34c:	fd54 ffff 00c6 0000 019a 0000 fff0 ffff     T...............
   1c35c:	ff7e ffff ffea ffff 001b 0000 0007 0000     ~...............
   1c36c:	fe72 ffff fe0b ffff 00ae 0000 00d4 0000     r...............
   1c37c:	ffef ffff ffc2 ffff fff7 ffff 000a 0000     ................
   1c38c:	018d 0000 fe6e ffff fef2 ffff 006f 0000     ....n.......o...
   1c39c:	0067 0000 fff6 ffff ffe4 ffff fffd ffff     g...............
   1c3ac:	020c 0000 00ef 0000 feee ffff ff80 ffff     ................
   1c3bc:	003d 0000 0031 0000 fff9 ffff fff7 ffff     =...1...........
   1c3cc:	ffa2 ffff 01c6 0000 0066 0000 ff65 ffff     ........f...e...
   1c3dc:	ffc5 ffff 001e 0000 0015 0000 fffc ffff     ................
   1c3ec:	fe16 ffff 0008 0000 0118 0000 0026 0000     ............&...
   1c3fc:	ffb0 ffff ffe6 ffff 000e 0000 0008 0000     ................
   1c40c:	ff6b ffff fe80 ffff 002d 0000 0096 0000     k.......-.......
   1c41c:	000e 0000 ffd9 ffff fff5 ffff 0006 0000     ................
   1c42c:	015c 0000 ff47 ffff ff26 ffff 0027 0000     \...G...&...'...
   1c43c:	004a 0000 0005 0000 ffef ffff fffd ffff     J...............
   1c44c:	0120 0000 00f0 0000 ff75 ffff ff93 ffff      .......u.......
   1c45c:	0019 0000 0022 0000 0001 0000 fffa ffff     ...."...........
   1c46c:	ff5f ffff 010e 0000 0079 0000 ffac ffff     _.......y.......
   1c47c:	ffcd ffff 000d 0000 0010 0000 0000 0000     ................
   1c48c:	febe ffff ffb1 ffff 00af 0000 0036 0000     ............6...
   1c49c:	ffd4 ffff ffe7 ffff 0007 0000 0005 0000     ................
   1c4ac:	fff2 ffff fef6 ffff ffea ffff 0060 0000     ............`...
   1c4bc:	0018 0000 ffea ffff fff6 ffff 0003 0000     ................
   1c4cc:	010d 0000 ffc5 ffff ff61 ffff fffe ffff     ........a.......
   1c4dc:	0031 0000 000b 0000 fff7 ffff fffd ffff     1...............
   1c4ec:	0088 0000 00c8 0000 ffc7 ffff ffad ffff     ................
   1c4fc:	0003 0000 0017 0000 0005 0000 fffd ffff     ................
   1c50c:	ff5b ffff 008e 0000 006d 0000 ffdb ffff     [.......m.......
   1c51c:	ffd8 ffff 0003 0000 000a 0000 0002 0000     ................
   1c52c:	ff3f ffff ff98 ffff 0062 0000 0034 0000     ?.......b...4...
   1c53c:	ffeb ffff ffee ffff 0002 0000 0003 0000     ................
   1c54c:	0034 0000 ff56 ffff ffd1 ffff 0039 0000     4...V.......9...
   1c55c:	0019 0000 fff5 ffff fff7 ffff 0001 0000     ................
   1c56c:	00bc 0000 000a 0000 ff96 ffff ffed ffff     ................
   1c57c:	001e 0000 000b 0000 fffc ffff fffe ffff     ................
   1c58c:	002d 0000 0095 0000 fff7 ffff ffc7 ffff     -...............
   1c59c:	fff8 ffff 000e 0000 0004 0000 ffff ffff     ................
   1c5ac:	ff74 ffff 003e 0000 0056 0000 fff5 ffff     t...>...V.......
   1c5bc:	ffe4 ffff fffc ffff 0006 0000 0001 0000     ................
   1c5cc:	ff99 ffff ff9d ffff 0030 0000 002b 0000     ........0...+...
   1c5dc:	fff8 ffff fff2 ffff ffff ffff 0003 0000     ................
   1c5ec:	0047 0000 ff9e ffff ffcd ffff 001d 0000     G...............
   1c5fc:	0015 0000 fffc ffff fffb ffff ffff ffff     ................
   1c60c:	0078 0000 0027 0000 ffbf ffff ffe9 ffff     x...'...........
   1c61c:	0010 0000 000a 0000 fffe ffff fffe ffff     ................
   1c62c:	fffb ffff 0065 0000 000e 0000 ffdd ffff     ....e...........
   1c63c:	fff5 ffff 0007 0000 0004 0000 ffff ffff     ................
   1c64c:	ff99 ffff 000f 0000 003d 0000 0003 0000     ........=.......
   1c65c:	ffee ffff fffc ffff 0003 0000 0002 0000     ................
   1c66c:	ffd3 ffff ffb1 ffff 0012 0000 0020 0000     ............ ...
   1c67c:	0001 0000 fff7 ffff fffe ffff 0001 0000     ................
   1c68c:	0044 0000 ffcf ffff ffd4 ffff 000d 0000     D...............
   1c69c:	0010 0000 0000 0000 fffc ffff ffff ffff     ................
   1c6ac:	0046 0000 002c 0000 ffdd ffff ffeb ffff     F...,...........
   1c6bc:	0006 0000 0007 0000 ffff ffff ffff ffff     ................
   1c6cc:	ffe6 ffff 003e 0000 0014 0000 ffec ffff     ....>...........
   1c6dc:	fff5 ffff 0003 0000 0003 0000 0000 0000     ................
   1c6ec:	ffb9 ffff fff6 ffff 0027 0000 000a 0000     ........'.......
   1c6fc:	fff6 ffff fffc ffff 0001 0000 0001 0000     ................
   1c70c:	fff4 ffff ffc7 ffff 0000 0000 0015 0000     ................
   1c71c:	0005 0000 fffb ffff fffe ffff 0001 0000     ................
   1c72c:	0037 0000 ffeb ffff ffdf ffff 0003 0000     7...............
   1c73c:	000b 0000 0002 0000 fffe ffff ffff ffff     ................
   1c74c:	0024 0000 0027 0000 fff0 ffff ffef ffff     $...'...........
   1c75c:	0002 0000 0005 0000 0001 0000 0000 0000     ................
   1c76c:	ffe2 ffff 0023 0000 0016 0000 fff7 ffff     ....#...........
   1c77c:	fff8 ffff 0001 0000 0002 0000 0000 0000     ................
   1c78c:	ffd3 ffff ffef ffff 0017 0000 000a 0000     ................
   1c79c:	fffb ffff fffc ffff 0001 0000 ffff ffff     ................
   1c7ac:	0006 0000 ffda ffff fff9 ffff 000d 0000     ................
   1c7bc:	0005 0000 fffe ffff ffff ffff 0000 0000     ................
   1c7cc:	0028 0000 fffd ffff ffe9 ffff fffe ffff     (...............
   1c7dc:	0006 0000 0001 0000 ffff ffff 0000 0000     ................
   1c7ec:	0012 0000 fff8 ffff fff5 ffff 0002 0000     ................
   1c7fc:	0003 0000 0000 0000 ffff ffff 0000 0000     ................

0001c80c <H_ACC_LUT3_001>:
   1c80c:	0004 0000 ffca ffff 0003 0000 0013 0000     ................
   1c81c:	fffc ffff fffb ffff 0001 0000 0000 0000     ................
   1c82c:	0041 0000 fff2 ffff ffdd ffff 000a 0000     A...............
   1c83c:	0009 0000 fffd ffff ffff ffff 0000 0000     ................
   1c84c:	001d 0000 0038 0000 ffea ffff ffef ffff     ....8...........
   1c85c:	0009 0000 0002 0000 fffd ffff 0000 0000     ................
   1c86c:	ffc4 ffff 002e 0000 001c 0000 ffec ffff     ................
   1c87c:	fffc ffff 0006 0000 ffff ffff ffff ffff     ................
   1c88c:	ffbc ffff ffd9 ffff 002a 0000 0008 0000     ........*.......
   1c89c:	fff2 ffff 0001 0000 0003 0000 0000 0000     ................
   1c8ac:	0020 0000 ffb4 ffff fff5 ffff 001d 0000      ...............
   1c8bc:	fffe ffff fff8 ffff 0001 0000 0001 0000     ................
   1c8cc:	0062 0000 0005 0000 ffc7 ffff 0006 0000     b...............
   1c8dc:	0010 0000 fffa ffff fffe ffff 0000 0000     ................
   1c8ec:	000f 0000 005b 0000 ffee ffff ffe1 ffff     ....[...........
   1c8fc:	000a 0000 0006 0000 fffd ffff 0000 0000     ................
   1c90c:	ff94 ffff 002c 0000 0039 0000 ffe8 ffff     ....,...9.......
   1c91c:	fff3 ffff 0009 0000 0001 0000 fffe ffff     ................
   1c92c:	ffb4 ffff ffac ffff 0033 0000 0017 0000     ........3.......
   1c93c:	ffed ffff fffe ffff 0006 0000 ffff ffff     ................
   1c94c:	0054 0000 ff9e ffff ffdb ffff 002a 0000     T...........*...
   1c95c:	0003 0000 fff4 ffff 0001 0000 0001 0000     ................
   1c96c:	0086 0000 002c 0000 ffae ffff fffb ffff     ....,...........
   1c97c:	0019 0000 fffc ffff fffb ffff 0000 0000     ................
   1c98c:	ffe7 ffff 008b 0000 ffff ffff ffcd ffff     ................
   1c99c:	0009 0000 000c 0000 fffc ffff ffff ffff     ................
   1c9ac:	ff54 ffff 0018 0000 005f 0000 ffea ffff     T......._.......
   1c9bc:	ffe7 ffff 000b 0000 0003 0000 fffe ffff     ................
   1c9cc:	ffbf ffff ff69 ffff 0035 0000 0031 0000     ....i...5...1...
   1c9dc:	ffe8 ffff fff9 ffff 0008 0000 ffff ffff     ................
   1c9ec:	00a6 0000 ff92 ffff ffad ffff 0035 0000     ............5...
   1c9fc:	000f 0000 ffee ffff 0000 0000 0003 0000     ................
   1ca0c:	00a6 0000 0073 0000 ff96 ffff ffe4 ffff     ....s...........
   1ca1c:	0026 0000 ffff ffff fff7 ffff 0002 0000     &...............
   1ca2c:	ff99 ffff 00c2 0000 0026 0000 ffb3 ffff     ........&.......
   1ca3c:	0002 0000 0014 0000 fffc ffff fffd ffff     ................
   1ca4c:	ff03 ffff ffe2 ffff 0094 0000 fff6 ffff     ................
   1ca5c:	ffd4 ffff 000c 0000 0009 0000 ffff ffff     ................
   1ca6c:	ffef ffff ff0c ffff 0024 0000 0056 0000     ........$...V...
   1ca7c:	ffe5 ffff ffee ffff 0009 0000 0002 0000     ................
   1ca8c:	0120 0000 ff9f ffff ff66 ffff 003a 0000      .......f...:...
   1ca9c:	0024 0000 ffe9 ffff fffc ffff 0004 0000     $...............
   1caac:	00b1 0000 00e8 0000 ff84 ffff ffbb ffff     ................
   1cabc:	0032 0000 0008 0000 fff1 ffff 0001 0000     2...............
   1cacc:	ff0f ffff 00f1 0000 0070 0000 ff97 ffff     ........p.......
   1cadc:	fff1 ffff 0021 0000 fffd ffff fffb ffff     ....!...........
   1caec:	fead ffff ff74 ffff 00d1 0000 0015 0000     ....t...........
   1cafc:	ffbc ffff 0009 0000 0010 0000 fffd ffff     ................
   1cb0c:	0060 0000 fe96 ffff fff0 ffff 008a 0000     `...............
   1cb1c:	ffec ffff ffde ffff 000b 0000 0004 0000     ................
   1cb2c:	01c5 0000 ffdf ffff ff01 ffff 0030 0000     ............0...
   1cb3c:	0046 0000 ffe5 ffff fff5 ffff 0006 0000     F...............
   1cb4c:	0087 0000 0197 0000 ff88 ffff ff7a ffff     ............z...
   1cb5c:	003c 0000 0018 0000 ffec ffff ffff ffff     <...............
   1cb6c:	fe36 ffff 0105 0000 00e9 0000 ff7e ffff     6...........~...
   1cb7c:	ffcf ffff 002e 0000 0003 0000 fff8 ffff     ................
   1cb8c:	fe69 ffff feb1 ffff 010b 0000 0057 0000     i...........W...
   1cb9c:	ff9d ffff fffc ffff 001a 0000 fffe ffff     ................
   1cbac:	013a 0000 fe18 ffff ff80 ffff 00c9 0000     :...............
   1cbbc:	0003 0000 ffc7 ffff 000a 0000 0008 0000     ................
   1cbcc:	028c 0000 007c 0000 fe7f ffff 0009 0000     ....|...........
   1cbdc:	0076 0000 ffe5 ffff ffe9 ffff 0007 0000     v...............
   1cbec:	fff4 ffff 0284 0000 ffc1 ffff ff19 ffff     ................
   1cbfc:	003b 0000 0034 0000 ffe8 ffff fffb ffff     ;...4...........
   1cc0c:	fcfd ffff 00ce 0000 01a2 0000 ff77 ffff     ............w...
   1cc1c:	ff97 ffff 003a 0000 000e 0000 fff3 ffff     ....:...........
   1cc2c:	fe68 ffff fd7e ffff 012d 0000 00c4 0000     h...~...-.......
   1cc3c:	ff81 ffff ffe4 ffff 0026 0000 ffff ffff     ........&.......
   1cc4c:	02a9 0000 fdb0 ffff febb ffff 010b 0000     ................
   1cc5c:	0035 0000 ffab ffff 0005 0000 000f 0000     5...............
   1cc6c:	0353 0000 01ad 0000 fdec ffff ffac ffff     S...............
   1cc7c:	00b3 0000 fff2 ffff ffd6 ffff 0009 0000     ................
   1cc8c:	feb4 ffff 03a2 0000 005b 0000 fe98 ffff     ........[.......
   1cc9c:	0024 0000 005e 0000 ffe4 ffff fff3 ffff     $...^...........
   1ccac:	fb62 ffff 0006 0000 02a2 0000 ff9d ffff     b...............
   1ccbc:	ff41 ffff 0043 0000 0022 0000 fff1 ffff     A...C...".......
   1cccc:	feff ffff fbc0 ffff 0105 0000 0171 0000     ............q...
   1ccdc:	ff6d ffff ffb7 ffff 0033 0000 0005 0000     m.......3.......
   1ccec:	04dd 0000 fda6 ffff fd79 ffff 013b 0000     ........y...;...
   1ccfc:	008f 0000 ff8b ffff fff4 ffff 0017 0000     ................
   1cd0c:	03d5 0000 03b3 0000 fd6d ffff fefc ffff     ........m.......
   1cd1c:	00fa 0000 0014 0000 ffbc ffff 0007 0000     ................
   1cd2c:	fc64 ffff 04c5 0000 018f 0000 fdfe ffff     d...............
   1cd3c:	ffe1 ffff 0096 0000 ffea ffff ffe8 ffff     ................
   1cd4c:	f98b ffff fe46 ffff 03e0 0000 0017 0000     ....F...........
   1cd5c:	fec8 ffff 0039 0000 0043 0000 ffed ffff     ....9...C.......
   1cd6c:	00b6 0000 f974 ffff 004a 0000 0268 0000     ....t...J...h...
   1cd7c:	ff7b ffff ff6e ffff 003f 0000 0010 0000     {...n...?.......
   1cd8c:	07f6 0000 fe75 ffff fb9b ffff 0135 0000     ....u.......5...
   1cd9c:	0126 0000 ff6d ffff ffd4 ffff 0022 0000     &...m......."...
   1cdac:	0380 0000 06d8 0000 fd44 ffff fdd4 ffff     ........D.......
   1cdbc:	013d 0000 0059 0000 ff9d ffff ffff ffff     =...Y...........
   1cdcc:	f88d ffff 0589 0000 03ac 0000 fd66 ffff     ............f...
   1cddc:	ff54 ffff 00df 0000 fffc ffff ffd8 ffff     T...............
   1cdec:	f7d8 ffff faf9 ffff 0537 0000 0120 0000     ........7... ...
   1cdfc:	fe2c ffff 0011 0000 0073 0000 ffec ffff     ,.......s.......
   1ce0c:	0451 0000 f6c0 ffff fe88 ffff 03af 0000     Q...............
   1ce1c:	ffc9 ffff ff02 ffff 0043 0000 0025 0000     ........C...%...
   1ce2c:	0bf8 0000 00de 0000 f90d ffff 00b3 0000     ................
   1ce3c:	0208 0000 ff60 ffff ff9f ffff 002a 0000     ....`.......*...
   1ce4c:	0170 0000 0b63 0000 fdeb ffff fc0c ffff     p...c...........
   1ce5c:	015f 0000 00d1 0000 ff7c ffff ffee ffff     _.......|.......
   1ce6c:	f2a5 ffff 0536 0000 070c 0000 fd02 ffff     ....6...........
   1ce7c:	fe5f ffff 012d 0000 0029 0000 ffc3 ffff     _...-...).......
   1ce8c:	f6f9 ffff f56a ffff 0653 0000 0300 0000     ....j...S.......
   1ce9c:	fd7f ffff ffb3 ffff 00b2 0000 fff4 ffff     ................
   1ceac:	0ad3 0000 f402 ffff fb30 ffff 052c 0000     ........0...,...
   1cebc:	0087 0000 fe74 ffff 0032 0000 0041 0000     ....t...2...A...
   1cecc:	10b1 0000 05db 0000 f5e2 ffff ff55 ffff     ............U...
   1cedc:	033a 0000 ff82 ffff ff4c ffff 0031 0000     :.......L...1...
   1ceec:	fc80 ffff 116c 0000 000d 0000 f991 ffff     ....l...........
   1cefc:	0128 0000 0189 0000 ff65 ffff ffd0 ffff     (.......e.......
   1cf0c:	ea50 ffff 02d2 0000 0beb 0000 fd3a ffff     P...........:...
   1cf1c:	fcdf ffff 0169 0000 007e 0000 ffad ffff     ....i...~.......
   1cf2c:	f7f0 ffff ed12 ffff 0690 0000 05ff 0000     ................
   1cf3c:	fcf0 ffff fefc ffff 00f8 0000 000b 0000     ................
   1cf4c:	14f3 0000 f217 ffff f5af ffff 068d 0000     ................
   1cf5c:	01f7 0000 fdd0 ffff fff4 ffff 0067 0000     ............g...
   1cf6c:	153c 0000 0e5f 0000 f294 ffff fca1 ffff     <..._...........
   1cf7c:	04a2 0000 ffff ffff feda ffff 0027 0000     ............'...
   1cf8c:	f375 ffff 1852 0000 0489 0000 f689 ffff     u...R...........
   1cf9c:	003c 0000 0289 0000 ff75 ffff ff9c ffff     <.......u.......
   1cfac:	e01c ffff fcf6 ffff 1215 0000 febb ffff     ................
   1cfbc:	fac4 ffff 0157 0000 010e 0000 ff9e ffff     ....W...........
   1cfcc:	fc6d ffff e227 ffff 04c2 0000 0a3d 0000     m...'.......=...
   1cfdc:	fcf3 ffff fdbe ffff 012f 0000 0043 0000     ......../...C...
   1cfec:	22a1 0000 f2cc ffff edd4 ffff 06f2 0000     ."..............
   1cffc:	0476 0000 fd45 ffff ff5c ffff 009a 0000     v...E...\.......
   1d00c:	1790 0000 1aad 0000 f0b9 ffff f7e5 ffff     ................
   1d01c:	05dc 0000 0141 0000 fe3d ffff 0000 0000     ....A...=.......
   1d02c:	e630 ffff 1d73 0000 0c84 0000 f3cc ffff     0...s...........
   1d03c:	fdc6 ffff 03ec 0000 ffd8 ffff ff42 ffff     ............B...
   1d04c:	d7e3 ffff f1ee ffff 17cf 0000 0326 0000     ............&...
   1d05c:	f7e8 ffff 008a 0000 0214 0000 ff94 ffff     ................
   1d06c:	0716 0000 d840 ffff fdcf ffff 0fdf 0000     ....@...........
   1d07c:	fe7c ffff fb7b ffff 015e 0000 00aa 0000     |...{...^.......
   1d08c:	2e5b 0000 fc2e ffff e3b5 ffff 0444 0000     [...........D...
   1d09c:	0917 0000 fcce ffff fe41 ffff 00e1 0000     ........A.......
   1d0ac:	0ce6 0000 2a47 0000 f50a ffff eef8 ffff     ....G*..........
   1d0bc:	06e8 0000 03ae 0000 fd5c ffff ffb0 ffff     ........\.......
   1d0cc:	d2a9 ffff 1626 0000 1c97 0000 f194 ffff     ....&...........
   1d0dc:	f8df ffff 05f0 0000 00a6 0000 feb8 ffff     ................
   1d0ec:	e20e ffff d638 ffff 1bed 0000 0c90 0000     ....8...........
   1d0fc:	f3bc ffff fed8 ffff 03ac 0000 ff9e ffff     ................
   1d10c:	315e 0000 d076 ffff ec0b ffff 17ed 0000     ^1..v...........
   1d11c:	01e8 0000 f7f9 ffff 0167 0000 0160 0000     ........g...`...
   1d12c:	44b3 0000 1cef 0000 d478 ffff fd5b ffff     .D......x...[...
   1d13c:	102a 0000 fca8 ffff fc45 ffff 015d 0000     *.......E...]...
   1d14c:	ea0f ffff 4b3c 0000 035d 0000 e129 ffff     ....<K..]...)...
   1d15c:	06ee 0000 07fb 0000 fbcf ffff ff31 ffff     ............1...
   1d16c:	a1f1 ffff 0324 0000 398a 0000 f2c3 ffff     ....$....9......
   1d17c:	efe7 ffff 0943 0000 01d4 0000 fdac ffff     ....C...........
   1d18c:	ee83 ffff a261 ffff 1b36 0000 2050 0000     ....a...6...P ..
   1d19c:	ed95 ffff fc21 ffff 069a 0000 ff2d ffff     ....!.......-...
   1d1ac:	7203 0000 cb7a ffff c45d ffff 249c 0000     .r..z...]....$..
   1d1bc:	092a 0000 f1a8 ffff 02f0 0000 0220 0000     *........... ...
   1d1cc:	51ac 0000 60fa 0000 b9ac ffff ec19 ffff     .Q...`..........
   1d1dc:	1e89 0000 fa25 ffff fab3 ffff 030a 0000     ....%...........
   1d1ec:	8db5 ffff 7e16 0000 2757 0000 c0da ffff     .....~..W'......
   1d1fc:	0af5 0000 0d0f 0000 f7ef ffff 014d 0000     ............M...
   1d20c:	4cb1 ffff bea5 ffff 7e13 0000 ec5a ffff     .L.......~..Z...
   1d21c:	e0ff ffff 134a 0000 fceb ffff ffcd ffff     ....J...........
   1d22c:	47b2 0000 1686 ffff 234a 0000 483e 0000     .G......J#..>H..
   1d23c:	d394 ffff 0719 0000 0179 0000 0060 0000     ........y...`...
   1d24c:	5a19 0001 bccc ffff 5c67 ffff 658a 0000     .Z......g\...e..
   1d25c:	f037 ffff fb68 ffff ffc2 ffff 013c 0000     7...h.......<...
   1d26c:	8cc1 0000 5c9e 0001 172e ffff 22c0 0000     .....\......."..
   1d27c:	0cbf 0000 fef2 ffff fca5 ffff 0045 0000     ............E...
   1d28c:	b5f8 fffd 1fe4 0002 b12d ffff dcef ffff     ........-.......
   1d29c:	05be 0000 0739 0000 fecc ffff fed6 ffff     ....9...........
   1d2ac:	3913 fffb e1bc 0000 6622 0000 ebf2 ffff     .9......"f......
   1d2bc:	f0da ffff 03b8 0000 030c 0000 ff65 ffff     ............e...
   1d2cc:	85b5 fffb c3fa fffe 4876 0000 2411 0000     ........vH...$..
   1d2dc:	f600 ffff f9e8 ffff 0216 0000 0101 0000     ................
   1d2ec:	417a fffe ee5b fffd 8049 ffff 1a6d 0000     zA..[...I...m...
   1d2fc:	0c97 0000 fac4 ffff fda8 ffff 00de 0000     ................
   1d30c:	bd46 0000 fe50 fffe 12bf ffff c809 ffff     F...P...........
   1d31c:	099a 0000 0423 0000 fd5d ffff ff4e ffff     ....#...]...N...
   1d32c:	1136 0001 7825 0000 8608 ffff 96d2 ffff     6...%x..........
   1d33c:	e6e8 ffff 036a 0000 0118 0000 fef7 ffff     ....j...........
   1d34c:	f3ee ffff c567 0000 41e6 0000 ca70 ffff     ....g....A..p...
   1d35c:	d1aa ffff f4d0 ffff 0112 0000 0016 0000     ................
   1d36c:	4dde ffff 0478 0000 6e55 0000 22e6 0000     .M..x...Un..."..
   1d37c:	e970 ffff ebcd ffff fb30 ffff 0019 0000     p.......0.......
   1d38c:	c6fd ffff 7b65 ffff 05bc 0000 3820 0000     ....e{...... 8..
   1d39c:	1220 0000 f6be ffff f782 ffff fe1c ffff      ...............
   1d3ac:	6a60 0000 c825 ffff b3ac ffff 0303 0000     `j..%...........
   1d3bc:	1b42 0000 0924 0000 fc57 ffff fcc8 ffff     B...$...W.......
   1d3cc:	5281 0000 4c18 0000 db1a ffff d7c4 ffff     .R...L..........
   1d3dc:	0100 0000 0ccc 0000 0464 0000 fe6d ffff     ........d...m...
   1d3ec:	ce7d ffff 48ae 0000 2a89 0000 eb42 ffff     }....H...*..B...
   1d3fc:	ebbf ffff 0004 0000 05ed 0000 015d 0000     ............]...
   1d40c:	acdb ffff e182 ffff 2eb2 0000 15be 0000     ................
   1d41c:	f5a0 ffff f5dc ffff 001a 0000 0222 0000     ............"...
   1d42c:	07c3 0000 b990 ffff f266 ffff 198c 0000     ........f.......
   1d43c:	0b4c 0000 fac8 ffff fb63 ffff 0034 0000     L.......c...4...
   1d44c:	4863 0000 fae6 ffff d5bd ffff f957 ffff     cH..........W...
   1d45c:	0d9d 0000 057c 0000 fd80 ffff fe72 ffff     ....|.......r...
   1d46c:	1b12 0000 35ab 0000 fa5d ffff e82c ffff     .....5..]...,...
   1d47c:	fd1c ffff 06d5 0000 0267 0000 ff0a ffff     ........g.......
   1d48c:	d605 ffff 18e5 0000 2110 0000 fb22 ffff     .........!.."...
   1d49c:	f394 ffff fece ffff 032a 0000 00bf 0000     ........*.......
   1d4ac:	e02b ffff ddcf ffff 12ef 0000 11cf 0000     +...............
   1d4bc:	fcc3 ffff f9ea ffff ff95 ffff 0122 0000     ............"...
   1d4cc:	1c64 0000 dee5 ffff ec93 ffff 0c21 0000     d...........!...
   1d4dc:	08d4 0000 fe32 ffff fd41 ffff fff0 ffff     ....2...A.......
   1d4ec:	2915 0000 11ea 0000 e830 ffff f6b8 ffff     .)......0.......
   1d4fc:	06be 0000 0432 0000 ff16 ffff ff0e ffff     ....2...........
   1d50c:	f75c ffff 25df 0000 06f7 0000 f200 ffff     \....%..........
   1d51c:	fbd2 ffff 036c 0000 01d8 0000 ffa0 ffff     ....l...........
   1d52c:	d5a8 ffff 00f8 0000 1807 0000 01ec 0000     ................
   1d53c:	f8a7 ffff fe23 ffff 019c 0000 009a 0000     ....#...........
   1d54c:	f31d ffff de49 ffff 04b8 0000 0ce4 0000     ....I...........
   1d55c:	0059 0000 fc62 ffff ff3b ffff 0097 0000     Y...b...;.......
   1d56c:	1f8f 0000 eed9 ffff ecfc ffff 0415 0000     ................
   1d57c:	0663 0000 fffd ffff fe59 ffff ffc9 ffff     c.......Y.......
   1d58c:	1b0c 0000 1561 0000 f2de ffff f6a5 ffff     ....a...........
   1d59c:	0285 0000 030b 0000 ffeb ffff ff6c ffff     ............l...
   1d5ac:	f1d3 ffff 196c 0000 0a55 0000 f81e ffff     ....l...U.......
   1d5bc:	fb9f ffff 0157 0000 0159 0000 ffee ffff     ....W...Y.......
   1d5cc:	e19b ffff f9d8 ffff 1059 0000 046c 0000     ........Y...l...
   1d5dc:	fbd3 ffff fdfe ffff 00a8 0000 0075 0000     ............u...
   1d5ec:	fd55 ffff e71e ffff fee8 ffff 08e9 0000     U...............
   1d5fc:	01dc 0000 fdf1 ffff ff23 ffff 0042 0000     ........#...B...
   1d60c:	18b0 0000 f947 ffff f169 ffff 0067 0000     ....G...i...g...
   1d61c:	047a 0000 00ca 0000 ff0e ffff ffba ffff     z...............
   1d62c:	0e22 0000 1208 0000 f9f7 ffff f888 ffff     "...............
   1d63c:	007f 0000 0226 0000 0050 0000 ffa9 ffff     ....&...P.......
   1d64c:	f1bd ffff 0e58 0000 0995 0000 fc1f ffff     ....X...........
   1d65c:	fc62 ffff 0051 0000 00f7 0000 0014 0000     b...Q...........
   1d66c:	ed2e ffff f780 ffff 09af 0000 048d 0000     ................
   1d67c:	fde0 ffff fe4d ffff 002e 0000 0055 0000     ....M.......U...
   1d68c:	0321 0000 efca ffff fc6d ffff 0576 0000     !.......m...v...
   1d69c:	0219 0000 feee ffff ff41 ffff 0016 0000     ........A.......
   1d6ac:	1164 0000 ff8c ffff f613 ffff feb1 ffff     d...............
   1d6bc:	02cf 0000 00f4 0000 ff81 ffff ffc0 ffff     ................
   1d6cc:	0585 0000 0d83 0000 fe5e ffff fabb ffff     ........^.......
   1d6dc:	ff88 ffff 015d 0000 0067 0000 ffd0 ffff     ....]...g.......
   1d6ec:	f3e5 ffff 06b3 0000 07a8 0000 fea4 ffff     ................
   1d6fc:	fd61 ffff ffd4 ffff 009f 0000 001f 0000     a...............
   1d70c:	f5b6 ffff f7b0 ffff 04f5 0000 03d7 0000     ................
   1d71c:	ff2c ffff fec0 ffff fff3 ffff 0039 0000     ,...........9...
   1d72c:	0578 0000 f678 ffff fbd2 ffff 02f4 0000     x...x...........
   1d73c:	01d8 0000 ff91 ffff ff72 ffff 0000 0000     ........r.......
   1d74c:	0b40 0000 029f 0000 f9d7 ffff fe1e ffff     @...............
   1d75c:	0191 0000 00dd 0000 ffc9 ffff ffcf ffff     ................
   1d76c:	0090 0000 094f 0000 00af 0000 fc9c ffff     ....O...........
   1d77c:	ff2b ffff 00c6 0000 005f 0000 ffea ffff     +......._.......
   1d78c:	f6b3 ffff 0215 0000 058e 0000 0004 0000     ................
   1d79c:	fe47 ffff ffa3 ffff 005b 0000 001e 0000     G.......[.......
   1d7ac:	fb39 ffff f90c ffff 01fd 0000 02e5 0000     9...............
   1d7bc:	ffe7 ffff ff2b ffff ffda ffff 0020 0000     ....+....... ...
   1d7cc:	05b4 0000 fb03 ffff fc34 ffff 0154 0000     ........4...T...
   1d7dc:	016b 0000 ffec ffff ffa0 ffff fff6 ffff     k...............
   1d7ec:	06b7 0000 039a 0000 fc8b ffff fe29 ffff     ............)...
   1d7fc:	00be 0000 00ad 0000 fff3 ffff ffdf ffff     ................
   1d80c:	fe42 ffff 05ef 0000 01a0 0000 fe04 ffff     B...............
   1d81c:	ff24 ffff 0061 0000 004c 0000 fff9 ffff     $...a...L.......
   1d82c:	f976 ffff ffb0 ffff 03b5 0000 00a5 0000     v...............
   1d83c:	fef9 ffff ff9c ffff 002e 0000 0019 0000     ................
   1d84c:	fe73 ffff facb ffff 0057 0000 01ff 0000     s.......W.......
   1d85c:	003f 0000 ff7f ffff ffd5 ffff 0010 0000     ?...............
   1d86c:	04db 0000 fdd9 ffff fd00 ffff 0062 0000     ............b...
   1d87c:	00ff 0000 0019 0000 ffc5 ffff fff3 ffff     ................
   1d88c:	0395 0000 0370 0000 fe51 ffff fe7a ffff     ....p...Q...z...
   1d89c:	003f 0000 007a 0000 0008 0000 ffeb ffff     ?...z...........
   1d8ac:	fd88 ffff 0370 0000 01c6 0000 fefa ffff     ....p...........
   1d8bc:	ff44 ffff 0022 0000 0037 0000 0001 0000     D..."...7.......
   1d8cc:	fbca ffff fead ffff 0242 0000 00d0 0000     ........B.......
   1d8dc:	ff73 ffff ffa8 ffff 0011 0000 0012 0000     s...............
   1d8ec:	0023 0000 fc72 ffff ff8c ffff 0143 0000     #...r.......C...
   1d8fc:	005d 0000 ffba ffff ffda ffff 0007 0000     ]...............
   1d90c:	03a8 0000 ff79 ffff fddc ffff ffe4 ffff     ....y...........
   1d91c:	00a5 0000 0029 0000 ffe1 ffff fff3 ffff     ....)...........
   1d92c:	0196 0000 02c8 0000 ff64 ffff fee1 ffff     ........d.......
   1d93c:	fffd ffff 0050 0000 0011 0000 fff6 ffff     ....P...........
   1d94c:	fda0 ffff 01be 0000 018a 0000 ff92 ffff     ................
   1d95c:	ff72 ffff 0002 0000 0024 0000 0004 0000     r.......$.......
   1d96c:	fd8b ffff fe72 ffff 013b 0000 00c2 0000     ....r...;.......
   1d97c:	ffc0 ffff ffbd ffff 0003 0000 000c 0000     ................
