
fir.elf:     file format elf32-littleriscv


Disassembly of section .memory:

00000000 <_start>:
       0:	00010137          	lui	sp,0x10
       4:	7c8130ef          	jal	ra,137cc <main>
       8:	10000537          	lui	a0,0x10000
       c:	00450513          	addi	a0,a0,4 # 10000004 <end+0xffe240c>
      10:	0ad00593          	li	a1,173
      14:	00b52023          	sw	a1,0(a0)
      18:	00100073          	ebreak
	...

00010000 <time>:
   10000:	c0002573          	rdcycle	a0
   10004:	00008067          	ret

00010008 <insn>:
   10008:	c0202573          	rdinstret	a0
   1000c:	00008067          	ret

00010010 <malloc>:
   10010:	000106b7          	lui	a3,0x10
   10014:	7906a703          	lw	a4,1936(a3) # 10790 <heap_memory_used>
   10018:	00a707b3          	add	a5,a4,a0
   1001c:	00010537          	lui	a0,0x10
   10020:	78f6a823          	sw	a5,1936(a3)
   10024:	39050513          	addi	a0,a0,912 # 10390 <heap_memory>
   10028:	40000693          	li	a3,1024
   1002c:	00e50533          	add	a0,a0,a4
   10030:	00f6d463          	bge	a3,a5,10038 <malloc+0x28>
   10034:	00100073          	ebreak
   10038:	00008067          	ret

0001003c <memcpy>:
   1003c:	fff60293          	addi	t0,a2,-1
   10040:	0a060463          	beqz	a2,100e8 <memcpy+0xac>
   10044:	00600793          	li	a5,6
   10048:	00158713          	addi	a4,a1,1
   1004c:	0857f063          	bgeu	a5,t0,100cc <memcpy+0x90>
   10050:	00b567b3          	or	a5,a0,a1
   10054:	0037f793          	andi	a5,a5,3
   10058:	00158713          	addi	a4,a1,1
   1005c:	06079863          	bnez	a5,100cc <memcpy+0x90>
   10060:	40e507b3          	sub	a5,a0,a4
   10064:	0037b793          	sltiu	a5,a5,3
   10068:	06079263          	bnez	a5,100cc <memcpy+0x90>
   1006c:	ffc67313          	andi	t1,a2,-4
   10070:	00058793          	mv	a5,a1
   10074:	00050713          	mv	a4,a0
   10078:	00b30333          	add	t1,t1,a1
   1007c:	0007a683          	lw	a3,0(a5)
   10080:	00478793          	addi	a5,a5,4
   10084:	00470713          	addi	a4,a4,4
   10088:	fed72e23          	sw	a3,-4(a4)
   1008c:	fef318e3          	bne	t1,a5,1007c <memcpy+0x40>
   10090:	ffc67793          	andi	a5,a2,-4
   10094:	00f50733          	add	a4,a0,a5
   10098:	00f585b3          	add	a1,a1,a5
   1009c:	40f282b3          	sub	t0,t0,a5
   100a0:	04f60463          	beq	a2,a5,100e8 <memcpy+0xac>
   100a4:	0005c783          	lbu	a5,0(a1)
   100a8:	00f70023          	sb	a5,0(a4)
   100ac:	02028e63          	beqz	t0,100e8 <memcpy+0xac>
   100b0:	0015c683          	lbu	a3,1(a1)
   100b4:	00100793          	li	a5,1
   100b8:	00d700a3          	sb	a3,1(a4)
   100bc:	02f28663          	beq	t0,a5,100e8 <memcpy+0xac>
   100c0:	0025c783          	lbu	a5,2(a1)
   100c4:	00f70123          	sb	a5,2(a4)
   100c8:	00008067          	ret
   100cc:	00c50633          	add	a2,a0,a2
   100d0:	00050793          	mv	a5,a0
   100d4:	fff74683          	lbu	a3,-1(a4)
   100d8:	00178793          	addi	a5,a5,1
   100dc:	00170713          	addi	a4,a4,1
   100e0:	fed78fa3          	sb	a3,-1(a5)
   100e4:	fec798e3          	bne	a5,a2,100d4 <memcpy+0x98>
   100e8:	00008067          	ret

000100ec <strcpy>:
   100ec:	00050793          	mv	a5,a0
   100f0:	0180006f          	j	10108 <strcpy+0x1c>
   100f4:	0005c703          	lbu	a4,0(a1)
   100f8:	00178793          	addi	a5,a5,1
   100fc:	00158593          	addi	a1,a1,1
   10100:	fee78fa3          	sb	a4,-1(a5)
   10104:	08070463          	beqz	a4,1018c <strcpy+0xa0>
   10108:	00b7e733          	or	a4,a5,a1
   1010c:	00377713          	andi	a4,a4,3
   10110:	fe0712e3          	bnez	a4,100f4 <strcpy+0x8>
   10114:	0005a683          	lw	a3,0(a1)
   10118:	feff02b7          	lui	t0,0xfeff0
   1011c:	eff28293          	addi	t0,t0,-257 # fefefeff <end+0xfefd2307>
   10120:	00568733          	add	a4,a3,t0
   10124:	fff6c613          	not	a2,a3
   10128:	80808337          	lui	t1,0x80808
   1012c:	00c77733          	and	a4,a4,a2
   10130:	08030313          	addi	t1,t1,128 # 80808080 <end+0x807ea488>
   10134:	00677733          	and	a4,a4,t1
   10138:	02071463          	bnez	a4,10160 <strcpy+0x74>
   1013c:	00d7a023          	sw	a3,0(a5)
   10140:	0045a683          	lw	a3,4(a1)
   10144:	00478793          	addi	a5,a5,4
   10148:	00458593          	addi	a1,a1,4
   1014c:	00568733          	add	a4,a3,t0
   10150:	fff6c613          	not	a2,a3
   10154:	00c77733          	and	a4,a4,a2
   10158:	00677733          	and	a4,a4,t1
   1015c:	fe0700e3          	beqz	a4,1013c <strcpy+0x50>
   10160:	00d78023          	sb	a3,0(a5)
   10164:	0ff6f713          	zext.b	a4,a3
   10168:	02070263          	beqz	a4,1018c <strcpy+0xa0>
   1016c:	0086d713          	srli	a4,a3,0x8
   10170:	00e780a3          	sb	a4,1(a5)
   10174:	0ff77713          	zext.b	a4,a4
   10178:	00070a63          	beqz	a4,1018c <strcpy+0xa0>
   1017c:	0106d713          	srli	a4,a3,0x10
   10180:	00e78123          	sb	a4,2(a5)
   10184:	0ff77713          	zext.b	a4,a4
   10188:	00071463          	bnez	a4,10190 <strcpy+0xa4>
   1018c:	00008067          	ret
   10190:	0186d693          	srli	a3,a3,0x18
   10194:	00d781a3          	sb	a3,3(a5)
   10198:	00008067          	ret

0001019c <strcmp>:
   1019c:	01c0006f          	j	101b8 <strcmp+0x1c>
   101a0:	00054783          	lbu	a5,0(a0)
   101a4:	0005c703          	lbu	a4,0(a1)
   101a8:	00150513          	addi	a0,a0,1
   101ac:	00158593          	addi	a1,a1,1
   101b0:	06e79263          	bne	a5,a4,10214 <strcmp+0x78>
   101b4:	04078c63          	beqz	a5,1020c <strcmp+0x70>
   101b8:	00b567b3          	or	a5,a0,a1
   101bc:	0037f793          	andi	a5,a5,3
   101c0:	fe0790e3          	bnez	a5,101a0 <strcmp+0x4>
   101c4:	00052783          	lw	a5,0(a0)
   101c8:	0005a703          	lw	a4,0(a1)
   101cc:	04e79c63          	bne	a5,a4,10224 <strcmp+0x88>
   101d0:	feff0637          	lui	a2,0xfeff0
   101d4:	808086b7          	lui	a3,0x80808
   101d8:	eff60613          	addi	a2,a2,-257 # fefefeff <end+0xfefd2307>
   101dc:	08068693          	addi	a3,a3,128 # 80808080 <end+0x807ea488>
   101e0:	0100006f          	j	101f0 <strcmp+0x54>
   101e4:	00052783          	lw	a5,0(a0)
   101e8:	0005a703          	lw	a4,0(a1)
   101ec:	02e79c63          	bne	a5,a4,10224 <strcmp+0x88>
   101f0:	00c78733          	add	a4,a5,a2
   101f4:	fff7c793          	not	a5,a5
   101f8:	00f777b3          	and	a5,a4,a5
   101fc:	00d7f7b3          	and	a5,a5,a3
   10200:	00450513          	addi	a0,a0,4
   10204:	00458593          	addi	a1,a1,4
   10208:	fc078ee3          	beqz	a5,101e4 <strcmp+0x48>
   1020c:	00000513          	li	a0,0
   10210:	00008067          	ret
   10214:	00e7b533          	sltu	a0,a5,a4
   10218:	40a00533          	neg	a0,a0
   1021c:	00156513          	ori	a0,a0,1
   10220:	00008067          	ret
   10224:	0ff7f693          	zext.b	a3,a5
   10228:	0ff77613          	zext.b	a2,a4
   1022c:	04c69a63          	bne	a3,a2,10280 <strcmp+0xe4>
   10230:	00000513          	li	a0,0
   10234:	fc068ee3          	beqz	a3,10210 <strcmp+0x74>
   10238:	0087d693          	srli	a3,a5,0x8
   1023c:	00875613          	srli	a2,a4,0x8
   10240:	0ff6f693          	zext.b	a3,a3
   10244:	0ff67613          	zext.b	a2,a2
   10248:	02c69c63          	bne	a3,a2,10280 <strcmp+0xe4>
   1024c:	fc0682e3          	beqz	a3,10210 <strcmp+0x74>
   10250:	0107d693          	srli	a3,a5,0x10
   10254:	01075613          	srli	a2,a4,0x10
   10258:	0ff6f693          	zext.b	a3,a3
   1025c:	0ff67613          	zext.b	a2,a2
   10260:	02c69063          	bne	a3,a2,10280 <strcmp+0xe4>
   10264:	fa0686e3          	beqz	a3,10210 <strcmp+0x74>
   10268:	0187d793          	srli	a5,a5,0x18
   1026c:	01875713          	srli	a4,a4,0x18
   10270:	fae780e3          	beq	a5,a4,10210 <strcmp+0x74>
   10274:	00100513          	li	a0,1
   10278:	f8e7fce3          	bgeu	a5,a4,10210 <strcmp+0x74>
   1027c:	00c0006f          	j	10288 <strcmp+0xec>
   10280:	00100513          	li	a0,1
   10284:	f8c6f6e3          	bgeu	a3,a2,10210 <strcmp+0x74>
   10288:	fff00513          	li	a0,-1
   1028c:	00008067          	ret

00010290 <memset>:
   10290:	fff60313          	addi	t1,a2,-1
   10294:	0c060e63          	beqz	a2,10370 <memset+0xe0>
   10298:	40a006b3          	neg	a3,a0
   1029c:	00500293          	li	t0,5
   102a0:	0ff5f713          	zext.b	a4,a1
   102a4:	0036f793          	andi	a5,a3,3
   102a8:	00050593          	mv	a1,a0
   102ac:	0862f463          	bgeu	t0,t1,10334 <memset+0xa4>
   102b0:	02078e63          	beqz	a5,102ec <memset+0x5c>
   102b4:	00e50023          	sb	a4,0(a0)
   102b8:	0026f693          	andi	a3,a3,2
   102bc:	00150593          	addi	a1,a0,1
   102c0:	ffe60313          	addi	t1,a2,-2
   102c4:	02068463          	beqz	a3,102ec <memset+0x5c>
   102c8:	fff50693          	addi	a3,a0,-1
   102cc:	00e500a3          	sb	a4,1(a0)
   102d0:	0036f693          	andi	a3,a3,3
   102d4:	00250593          	addi	a1,a0,2
   102d8:	ffd60313          	addi	t1,a2,-3
   102dc:	00069863          	bnez	a3,102ec <memset+0x5c>
   102e0:	00350593          	addi	a1,a0,3
   102e4:	00e50123          	sb	a4,2(a0)
   102e8:	ffc60313          	addi	t1,a2,-4
   102ec:	00871693          	slli	a3,a4,0x8
   102f0:	40f60633          	sub	a2,a2,a5
   102f4:	01071293          	slli	t0,a4,0x10
   102f8:	00d766b3          	or	a3,a4,a3
   102fc:	0056e6b3          	or	a3,a3,t0
   10300:	01871393          	slli	t2,a4,0x18
   10304:	00f507b3          	add	a5,a0,a5
   10308:	ffc67293          	andi	t0,a2,-4
   1030c:	0076e6b3          	or	a3,a3,t2
   10310:	00f282b3          	add	t0,t0,a5
   10314:	00d7a023          	sw	a3,0(a5)
   10318:	00478793          	addi	a5,a5,4
   1031c:	fe579ce3          	bne	a5,t0,10314 <memset+0x84>
   10320:	00367793          	andi	a5,a2,3
   10324:	04078663          	beqz	a5,10370 <memset+0xe0>
   10328:	ffc67613          	andi	a2,a2,-4
   1032c:	00c585b3          	add	a1,a1,a2
   10330:	40c30333          	sub	t1,t1,a2
   10334:	00e58023          	sb	a4,0(a1)
   10338:	02030c63          	beqz	t1,10370 <memset+0xe0>
   1033c:	00e580a3          	sb	a4,1(a1)
   10340:	00100793          	li	a5,1
   10344:	02f30663          	beq	t1,a5,10370 <memset+0xe0>
   10348:	00e58123          	sb	a4,2(a1)
   1034c:	00200793          	li	a5,2
   10350:	02f30063          	beq	t1,a5,10370 <memset+0xe0>
   10354:	00e581a3          	sb	a4,3(a1)
   10358:	00300793          	li	a5,3
   1035c:	00f30a63          	beq	t1,a5,10370 <memset+0xe0>
   10360:	00e58223          	sb	a4,4(a1)
   10364:	00400793          	li	a5,4
   10368:	00f30463          	beq	t1,a5,10370 <memset+0xe0>
   1036c:	00e582a3          	sb	a4,5(a1)
   10370:	00008067          	ret
   10374:	1941                	addi	s2,s2,-16
   10376:	0000                	unimp
   10378:	7200                	flw	fs0,32(a2)
   1037a:	7369                	lui	t1,0xffffa
   1037c:	01007663          	bgeu	zero,a6,10388 <memset+0xf8>
   10380:	0000000f          	fence	unknown,unknown
   10384:	7205                	lui	tp,0xfffe1
   10386:	3376                	fld	ft6,376(sp)
   10388:	6532                	flw	fa0,12(sp)
   1038a:	7031                	c.lui	zero,0xfffec
   1038c:	0039                	c.nop	14
	...

00010390 <heap_memory>:
	...

00010790 <heap_memory_used>:
   10790:	0000 0000 4347 3a43 2820 3267 6565 6535     ....GCC: (g2ee5e
   107a0:	3334 3030 3831 2029 3231 322e 302e 4100     430018) 12.2.0.A
   107b0:	001b 0000 6972 6373 0076 1101 0000 0400     ....riscv.......
   107c0:	0504 7672 3233 3165 3970 0000               ..rv32e1p9..

000107cc <H>:
	...
   10a6c:	ffff ffff 0000 0000 0000 0000 ffff ffff     ................
	...
   10a84:	ffff ffff 0000 0000 0000 0000 ffff ffff     ................
	...
   10a9c:	ffff ffff 0000 0000 0000 0000 ffff ffff     ................
	...
   10ab4:	ffff ffff 0000 0000 0000 0000 ffff ffff     ................
	...
   10acc:	ffff ffff 0000 0000 0000 0000 ffff ffff     ................
	...
   10ae4:	ffff ffff 0000 0000 0000 0000 ffff ffff     ................
	...
   10afc:	ffff ffff 0000 0000 0000 0000 ffff ffff     ................
	...
   10b14:	ffff ffff 0000 0000 0000 0000 ffff ffff     ................
	...
   10b2c:	ffff ffff 0000 0000 0000 0000 0000 0000     ................
	...
   10b80:	0001 0000 0000 0000 0000 0000 0001 0000     ................
	...
   10b98:	0002 0000 0000 0000 0000 0000 0002 0000     ................
	...
   10bb0:	0002 0000 0000 0000 0000 0000 0003 0000     ................
	...
   10bc8:	0003 0000 0000 0000 0000 0000 0004 0000     ................
	...
   10be0:	0004 0000 0000 0000 0000 0000 0004 0000     ................
	...
   10bf8:	0005 0000 0000 0000 0000 0000 0005 0000     ................
	...
   10c10:	0005 0000 0000 0000 0000 0000 0005 0000     ................
	...
   10c28:	0005 0000 0000 0000 0000 0000 0005 0000     ................
	...
   10c40:	0005 0000 0000 0000 0000 0000 0005 0000     ................
	...
   10c58:	0004 0000 0000 0000 0000 0000 0004 0000     ................
   10c68:	0001 0000 0000 0000 0003 0000 0001 0000     ................
   10c78:	0000 0000 0003 0000 0001 0000 0000 0000     ................
   10c88:	0002 0000 0001 0000 0000 0000 0001 0000     ................
   10c98:	0001 0000 0000 0000 0000 0000 0001 0000     ................
	...
   10cb0:	0002 0000 0000 0000 ffff ffff 0002 0000     ................
   10cc0:	0000 0000 fffe ffff 0002 0000 0000 0000     ................
   10cd0:	fffd ffff 0002 0000 0000 0000 fffb ffff     ................
   10ce0:	0002 0000 0000 0000 fffa ffff 0002 0000     ................
   10cf0:	0000 0000 fff9 ffff 0002 0000 0000 0000     ................
   10d00:	fff8 ffff 0002 0000 0000 0000 fff6 ffff     ................
   10d10:	0002 0000 0000 0000 fff5 ffff 0002 0000     ................
   10d20:	0000 0000 fff4 ffff 0002 0000 0000 0000     ................
   10d30:	fff3 ffff 0001 0000 0000 0000 fff2 ffff     ................
   10d40:	0001 0000 0000 0000 fff1 ffff 0001 0000     ................
   10d50:	0000 0000 fff1 ffff 0000 0000 0000 0000     ................
   10d60:	fff0 ffff 0000 0000 0000 0000 fff0 ffff     ................
	...
   10d78:	fff0 ffff 0000 0000 0000 0000 fff1 ffff     ................
	...
   10d90:	fff1 ffff ffff ffff 0000 0000 fff2 ffff     ................
   10da0:	ffff ffff 0000 0000 fff3 ffff fffe ffff     ................
   10db0:	0000 0000 fff5 ffff fffd ffff 0000 0000     ................
   10dc0:	fff6 ffff fffd ffff 0000 0000 fff8 ffff     ................
   10dd0:	fffc ffff 0000 0000 fffb ffff fffc ffff     ................
   10de0:	0000 0000 fffd ffff fffb ffff 0000 0000     ................
   10df0:	0000 0000 fffb ffff 0000 0000 0002 0000     ................
   10e00:	fffa ffff 0000 0000 0005 0000 fffa ffff     ................
   10e10:	0000 0000 0009 0000 fff9 ffff 0000 0000     ................
   10e20:	000c 0000 fff9 ffff 0000 0000 0010 0000     ................
   10e30:	fff9 ffff 0000 0000 0014 0000 fff9 ffff     ................
   10e40:	0000 0000 0017 0000 fff9 ffff 0000 0000     ................
   10e50:	001b 0000 fff9 ffff 0000 0000 001e 0000     ................
   10e60:	fffa ffff 0000 0000 0022 0000 fffa ffff     ........".......
   10e70:	0000 0000 0025 0000 fffb ffff 0000 0000     ....%...........
   10e80:	0028 0000 fffb ffff 0000 0000 002a 0000     (...........*...
   10e90:	fffc ffff ffff ffff 002c 0000 fffd ffff     ........,.......
   10ea0:	ffff ffff 002e 0000 fffe ffff ffff ffff     ................
   10eb0:	002f 0000 ffff ffff ffff ffff 002f 0000     /.........../...
   10ec0:	0000 0000 ffff ffff 002e 0000 0001 0000     ................
   10ed0:	fffe ffff 002d 0000 0003 0000 fffe ffff     ....-...........
   10ee0:	002b 0000 0004 0000 fffe ffff 0029 0000     +...........)...
   10ef0:	0006 0000 fffe ffff 0025 0000 0007 0000     ........%.......
   10f00:	fffe ffff 0021 0000 0009 0000 fffe ffff     ....!...........
   10f10:	001b 0000 000b 0000 fffe ffff 0015 0000     ................
   10f20:	000d 0000 fffe ffff 000e 0000 000e 0000     ................
   10f30:	fffe ffff 0007 0000 0010 0000 fffe ffff     ................
   10f40:	ffff ffff 0011 0000 fffe ffff fff6 ffff     ................
   10f50:	0012 0000 fffe ffff ffed ffff 0013 0000     ................
   10f60:	fffe ffff ffe3 ffff 0014 0000 ffff ffff     ................
   10f70:	ffd8 ffff 0015 0000 ffff ffff ffcd ffff     ................
   10f80:	0015 0000 ffff ffff ffc2 ffff 0015 0000     ................
   10f90:	0000 0000 ffb8 ffff 0015 0000 0000 0000     ................
   10fa0:	ffad ffff 0014 0000 0000 0000 ffa3 ffff     ................
   10fb0:	0013 0000 0000 0000 ff99 ffff 0012 0000     ................
   10fc0:	0001 0000 ff90 ffff 0010 0000 0002 0000     ................
   10fd0:	ff89 ffff 000e 0000 0002 0000 ff82 ffff     ................
   10fe0:	000c 0000 0003 0000 ff7d ffff 0009 0000     ........}.......
   10ff0:	0003 0000 ff79 ffff 0005 0000 0004 0000     ....y...........
   11000:	ff77 ffff 0002 0000 0005 0000 ff76 ffff     w...........v...
   11010:	ffff ffff 0005 0000 ff78 ffff fffb ffff     ........x.......
   11020:	0006 0000 ff7c ffff fff6 ffff 0006 0000     ....|...........
   11030:	ff83 ffff fff1 ffff 0007 0000 ff8b ffff     ................
   11040:	ffed ffff 0007 0000 ff97 ffff ffe8 ffff     ................
   11050:	0007 0000 ffa4 ffff ffe3 ffff 0008 0000     ................
   11060:	ffb4 ffff ffde ffff 0008 0000 ffc7 ffff     ................
   11070:	ffd9 ffff 0008 0000 ffdc ffff ffd4 ffff     ................
   11080:	0007 0000 fff3 ffff ffd0 ffff 0007 0000     ................
   11090:	000b 0000 ffcc ffff 0007 0000 0026 0000     ............&...
   110a0:	ffc9 ffff 0006 0000 0043 0000 ffc6 ffff     ........C.......
   110b0:	0005 0000 0061 0000 ffc3 ffff 0004 0000     ....a...........
   110c0:	0080 0000 ffc2 ffff 0003 0000 00a0 0000     ................
   110d0:	ffc1 ffff 0002 0000 00bf 0000 ffc1 ffff     ................
   110e0:	0001 0000 00df 0000 ffc2 ffff 0000 0000     ................
   110f0:	00fd 0000 ffc5 ffff ffff ffff 011a 0000     ................
   11100:	ffc8 ffff fffd ffff 0136 0000 ffcc ffff     ........6.......
   11110:	fffc ffff 014f 0000 ffd2 ffff fffa ffff     ....O...........
   11120:	0164 0000 ffd8 ffff fff8 ffff 0177 0000     d...........w...
   11130:	ffe0 ffff fff6 ffff 0185 0000 ffe9 ffff     ................
   11140:	fff4 ffff 018e 0000 fff3 ffff fff2 ffff     ................
   11150:	0193 0000 fffe ffff fff1 ffff 0191 0000     ................
   11160:	0008 0000 ffef ffff 018a 0000 0015 0000     ................
   11170:	ffed ffff 017c 0000 0022 0000 ffec ffff     ....|...".......
   11180:	0167 0000 0030 0000 ffeb ffff 014b 0000     g...0.......K...
   11190:	003f 0000 ffea ffff 0128 0000 004d 0000     ?.......(...M...
   111a0:	ffe9 ffff 00fe 0000 005c 0000 ffe9 ffff     ........\.......
   111b0:	00cc 0000 006a 0000 ffe9 ffff 0094 0000     ....j...........
   111c0:	0078 0000 ffe9 ffff 0054 0000 0085 0000     x.......T.......
   111d0:	ffea ffff 000f 0000 0091 0000 ffeb ffff     ................
   111e0:	ffc4 ffff 009c 0000 ffec ffff ff74 ffff     ............t...
   111f0:	00a6 0000 ffee ffff ff1e ffff 00ae 0000     ................
   11200:	fff0 ffff fec6 ffff 00b4 0000 fff3 ffff     ................
   11210:	fe6b ffff 00b7 0000 fff6 ffff fe0e ffff     k...............
   11220:	00b9 0000 fffa ffff fdb2 ffff 00b7 0000     ................
   11230:	fffe ffff fd57 ffff 00b3 0000 0001 0000     ....W...........
   11240:	fcff ffff 00ac 0000 0005 0000 fcac ffff     ................
   11250:	00a1 0000 000a 0000 fc5e ffff 0093 0000     ........^.......
   11260:	000f 0000 fc18 ffff 0082 0000 0015 0000     ................
   11270:	fbdb ffff 006e 0000 001a 0000 fbaa ffff     ....n...........
   11280:	0056 0000 0020 0000 fb85 ffff 003c 0000     V... .......<...
   11290:	0025 0000 fb6e ffff 001e 0000 002a 0000     %...n.......*...
   112a0:	fb67 ffff fffe ffff 002f 0000 fb70 ffff     g......./...p...
   112b0:	ffdb ffff 0034 0000 fb8c ffff ffb5 ffff     ....4...........
   112c0:	0039 0000 fbbc ffff ff8d ffff 003c 0000     9...........<...
   112d0:	fbff ffff ff64 ffff 0040 0000 fc58 ffff     ....d...@...X...
   112e0:	ff3a ffff 0042 0000 fcc5 ffff ff10 ffff     :...B...........
   112f0:	0044 0000 fd47 ffff fee6 ffff 0045 0000     D...G.......E...
   11300:	fddf ffff febc ffff 0045 0000 fe8b ffff     ........E.......
   11310:	fe95 ffff 0044 0000 ff4a ffff fe6f ffff     ....D...J...o...
   11320:	0042 0000 001a 0000 fe4c ffff 003e 0000     B.......L...>...
   11330:	00fc 0000 fe2d ffff 003a 0000 01ec 0000     ....-...:.......
   11340:	fe13 ffff 0034 0000 02e8 0000 fdfe ffff     ....4...........
   11350:	002d 0000 03ee 0000 fdee ffff 0024 0000     -...........$...
   11360:	04f9 0000 fde6 ffff 001b 0000 0607 0000     ................
   11370:	fde5 ffff 0010 0000 0713 0000 fdeb ffff     ................
   11380:	0004 0000 081b 0000 fdfb ffff fff8 ffff     ................
   11390:	0918 0000 fe13 ffff ffea ffff 0a07 0000     ................
   113a0:	fe35 ffff ffdc ffff 0ae2 0000 fe60 ffff     5...........`...
   113b0:	ffcd ffff 0ba6 0000 fe95 ffff ffbd ffff     ................
   113c0:	0c4d 0000 fed3 ffff ffad ffff 0cd2 0000     M...............
   113d0:	ff1c ffff ff9d ffff 0d31 0000 ff6d ffff     ........1...m...
   113e0:	ff8e ffff 0d65 0000 ffc7 ffff ff7e ffff     ....e.......~...
   113f0:	0d6a 0000 0028 0000 ff70 ffff 0d3c 0000     j...(...p...<...
   11400:	0092 0000 ff62 ffff 0cd8 0000 0102 0000     ....b...........
   11410:	ff56 ffff 0c3a 0000 0177 0000 ff4b ffff     V...:...w...K...
   11420:	0b62 0000 01f0 0000 ff42 ffff 0a4b 0000     b.......B...K...
   11430:	026b 0000 ff3b ffff 08f8 0000 02e7 0000     k...;...........
   11440:	ff37 ffff 0766 0000 0361 0000 ff35 ffff     7...f...a...5...
   11450:	0598 0000 03d9 0000 ff37 ffff 038f 0000     ........7.......
   11460:	044c 0000 ff3b ffff 014f 0000 04b7 0000     L...;...O.......
   11470:	ff43 ffff fedc ffff 0519 0000 ff4e ffff     C...........N...
   11480:	fc3a ffff 056f 0000 ff5c ffff f970 ffff     :...o...\...p...
   11490:	05b7 0000 ff6f ffff f686 ffff 05f0 0000     ....o...........
   114a0:	ff85 ffff f384 ffff 0616 0000 ff9e ffff     ................
   114b0:	f074 ffff 0628 0000 ffbb ffff ed60 ffff     t...(.......`...
   114c0:	0624 0000 ffdc ffff ea54 ffff 0608 0000     $.......T.......
   114d0:	ffff ffff e75c ffff 05d3 0000 0025 0000     ....\.......%...
   114e0:	e485 ffff 0583 0000 004e 0000 e1dc ffff     ........N.......
   114f0:	0517 0000 0079 0000 df71 ffff 0490 0000     ....y...q.......
   11500:	00a6 0000 dd4f ffff 03ec 0000 00d4 0000     ....O...........
   11510:	db87 ffff 032c 0000 0102 0000 da25 ffff     ....,.......%...
   11520:	0250 0000 0131 0000 d938 ffff 015a 0000     P...1...8...Z...
   11530:	015e 0000 d8cc ffff 004b 0000 018a 0000     ^.......K.......
   11540:	d8ee ffff ff25 ffff 01b4 0000 d9a7 ffff     ....%...........
   11550:	fdeb ffff 01da 0000 db02 ffff fc9f ffff     ................
   11560:	01fd 0000 dd07 ffff fb45 ffff 021a 0000     ........E.......
   11570:	dfbb ffff f9e1 ffff 0232 0000 e322 ffff     ........2..."...
   11580:	f879 ffff 0244 0000 e73d ffff f710 ffff     y...D...=.......
   11590:	024e 0000 ec0d ffff f5ac ffff 0250 0000     N...........P...
   115a0:	f18b ffff f453 ffff 0249 0000 f7b2 ffff     ....S...I.......
   115b0:	f30b ffff 023a 0000 fe78 ffff f1da ffff     ....:...x.......
   115c0:	0220 0000 05ce 0000 f0c7 ffff 01fc 0000      ...............
   115d0:	0da6 0000 efd8 ffff 01ce 0000 15eb 0000     ................
   115e0:	ef13 ffff 0195 0000 1e87 0000 ee80 ffff     ................
   115f0:	0152 0000 2760 0000 ee23 ffff 0104 0000     R...`'..#.......
   11600:	3058 0000 ee04 ffff 00ab 0000 3950 0000     X0..........P9..
   11610:	ee26 ffff 0049 0000 4225 0000 ee90 ffff     &...I...%B......
   11620:	ffe0 ffff 4ab4 0000 ef45 ffff ff6d ffff     .....J..E...m...
   11630:	52d4 0000 f049 ffff fef2 ffff 5a60 0000     .R..I.......`Z..
   11640:	f19e ffff fe73 ffff 612c 0000 f345 ffff     ....s...,a..E...
   11650:	fdee ffff 6712 0000 f53f ffff fd67 ffff     .....g..?...g...
   11660:	6be6 0000 f78b ffff fcdf ffff 6f80 0000     .k...........o..
   11670:	fa27 ffff fc59 ffff 71ba 0000 fd0f ffff     '...Y....q......
   11680:	fbd5 ffff 726f 0000 003d 0000 fb56 ffff     ....or..=...V...
   11690:	717c 0000 03ad 0000 fae0 ffff 6ec3 0000     |q...........n..
   116a0:	0756 0000 fa73 ffff 6a2a 0000 0b2e 0000     V...s...*j......
   116b0:	fa13 ffff 639b 0000 0f2b 0000 f9c1 ffff     .....c..+.......
   116c0:	5b08 0000 1340 0000 f982 ffff 5067 0000     .[..@.......gP..
   116d0:	175f 0000 f955 ffff 43b8 0000 1b7a 0000     _...U....C..z...
   116e0:	f93f ffff 34ff 0000 1f81 0000 f941 ffff     ?....4......A...
   116f0:	244c 0000 2362 0000 f95c ffff 11b5 0000     L$..b#..\.......
   11700:	270b 0000 f994 ffff fd5c ffff 2a6b 0000     .'......\...k*..
   11710:	f9e8 ffff e767 ffff 2d6f 0000 fa5a ffff     ....g...o-..Z...
   11720:	d00c ffff 3002 0000 faeb ffff b786 ffff     .....0..........
   11730:	3213 0000 fb9c ffff 9e1b ffff 338f 0000     .2...........3..
   11740:	fc6b ffff 841a ffff 3465 0000 fd59 ffff     k.......e4..Y...
   11750:	69db ffff 3483 0000 fe64 ffff 4fbb ffff     .i...4..d....O..
   11760:	33dc 0000 ff8a ffff 3623 ffff 3260 0000     .3......#6..`2..
   11770:	00c9 0000 1d7f ffff 3005 0000 0220 0000     .........0.. ...
   11780:	0640 ffff 2cc2 0000 038a 0000 f0dd fffe     @....,..........
   11790:	2890 0000 0504 0000 ddcd fffe 236e 0000     .(..........n#..
   117a0:	0689 0000 cd89 fffe 1d5a 0000 0814 0000     ........Z.......
   117b0:	c089 fffe 1658 0000 09a0 0000 b742 fffe     ....X.......B...
   117c0:	0e71 0000 0b27 0000 b224 fffe 05b0 0000     q...'...$.......
   117d0:	0ca2 0000 b198 fffe fc26 ffff 0e0c 0000     ........&.......
   117e0:	b5fe fffe f1e5 ffff 0f5d 0000 bfac fffe     ........].......
   117f0:	e707 ffff 108f 0000 cee9 fffe dba9 ffff     ................
   11800:	119a 0000 e3ed fffe cfec ffff 1276 0000     ............v...
   11810:	fede fffe c3f5 ffff 131e 0000 1fd0 ffff     ................
   11820:	b7ee ffff 138a 0000 46c0 ffff ac03 ffff     .........F......
   11830:	13b3 0000 7394 ffff a065 ffff 1395 0000     .....s..e.......
   11840:	a61b ffff 9545 ffff 1329 0000 de07 ffff     ....E...).......
   11850:	8ad9 ffff 126b 0000 1af1 0000 8157 ffff     ....k.......W...
   11860:	1157 0000 5c58 0000 78f6 ffff 0fea 0000     W...X\...x......
   11870:	a19e 0000 71ed ffff 0e22 0000 ea08 0000     .....q..".......
   11880:	6c75 ffff 0c00 0000 34c2 0001 68c0 ffff     ul.......4...h..
   11890:	0984 0000 80de 0001 6703 ffff 06af 0000     .........g......
   118a0:	cd53 0001 676d ffff 0387 0000 1905 0002     S...mg..........
   118b0:	6a27 ffff 000f 0000 62c1 0002 6f59 ffff     'j.......b..Yo..
   118c0:	fc51 ffff a945 0002 7720 ffff f852 ffff     Q...E... w..R...
   118d0:	eb3f 0002 8194 ffff f41e ffff 2754 0003     ?...........T'..
   118e0:	8ec5 ffff efc0 ffff 5c26 0003 9eb9 ffff     ........&\......
   118f0:	eb46 ffff 8852 0003 b16c ffff e6bf ffff     F...R...l.......
   11900:	aa7e 0003 c6ce ffff e23a ffff c157 0003     ~.......:...W...
   11910:	dec6 ffff ddca ffff cb9b 0003 f92d ffff     ............-...
   11920:	d980 ffff c81e 0003 15cf 0000 d571 ffff     ............q...
   11930:	b5d3 0003 3470 0000 d1b0 ffff 93ca 0003     ....p4..........
   11940:	54c2 0000 ce53 ffff 6143 0003 766d 0000     .T..S...Ca..mv..
   11950:	cb6e ffff 1da7 0003 990c 0000 c915 ffff     n...............
   11960:	c899 0002 bc2e 0000 c75d ffff 61f5 0002     ........]....a..
   11970:	df57 0000 c659 ffff e9d6 0001 0203 0001     W...Y...........
   11980:	c61c ffff 609e 0001 23a1 0001 c6b7 ffff     .....`...#......
   11990:	c6f9 0000 439e 0001 c838 ffff 1ddc 0000     .....C..8.......
   119a0:	615c 0001 caac ffff 668e ffff 7c3c 0001     \a.......f..<|..
   119b0:	ce1e ffff a2a5 fffe 939d 0001 d294 ffff     ................
   119c0:	d407 fffd a6dd 0001 d812 ffff fcec fffc     ................
   119d0:	b55e 0001 de99 ffff 1fd8 fffc be87 0001     ^...............
   119e0:	e624 ffff 3f9b fffb c1c8 0001 eeab ffff     $....?..........
   119f0:	5f4a fffa be9b 0001 f823 ffff 823a fff9     J_......#...:...
   11a00:	b487 0001 0279 0000 abf6 fff8 a327 0001     ....y.......'...
   11a10:	0d98 0000 e03b fff7 8a27 0001 1967 0000     ....;...'...g...
   11a20:	22e7 fff7 6949 0001 25c4 0000 77f4 fff6     ."..Ii...%...w..
   11a30:	406b 0001 328d 0000 e363 fff5 0f85 0001     k@...2..c.......
   11a40:	3f99 0000 6935 fff5 d6ad 0000 4cbb 0000     .?..5i.......L..
   11a50:	0d55 fff5 961a 0000 59c2 0000 d38d fff4     U........Y......
   11a60:	4e25 0000 6679 0000 bf71 fff4 ff4b ffff     %N..yf..q...K...
   11a70:	72ab 0000 d44e fff4 aa2b ffff 7e1c 0000     .r..N...+....~..
   11a80:	1517 fff5 4f8b ffff 8892 0000 8454 fff5     .....O......T...
   11a90:	f057 fffe 91ce 0000 240d fff6 8d9f fffe     W........$......
   11aa0:	9995 0000 f5bd fff6 2894 fffe 9fab 0000     .........(......
   11ab0:	fa39 fff7 c28d fffd a3d3 0000 31a8 fff9     9............1..
   11ac0:	5cfc fffd a5d7 0000 9b6c fffa f972 fffc     .\......l...r...
   11ad0:	a582 0000 361d fffc 9998 fffc a2a3 0000     .....6..........
   11ae0:	ff75 fffd 3f2c fffc 9d12 0000 f44f ffff     u...,?......O...
   11af0:	ebfa fffb 94ab 0000 109b 0002 a1d8 fffb     ................
   11b00:	8952 0000 4f5f 0004 62a1 fffb 7af6 0000     R..._O...b...z..
   11b10:	aab3 0006 3029 fffb 698e 0000 1bc6 0009     ....)0...i......
   11b20:	0c3e fffb 551e 0000 9ae6 000b f898 fffa     >....U..........
   11b30:	3db4 0000 1f8b 000e f6d6 fffa 236b 0000     .=..........k#..
   11b40:	a066 0010 0875 fffb 066a 0000 1373 0013     f...u...j...s...
   11b50:	2ec5 fffb e6ea ffff 6e12 0015 6ae4 fffb     .........n...j..
   11b60:	c52b ffff a522 0017 bdb3 fffb a17f ffff     +..."...........
   11b70:	ad25 0019 27d0 fffc 7c46 ffff 7a5c 001b     %....'..F|..\z..
   11b80:	a98b fffc 55ec ffff 00f7 001d 42e2 fffd     .....U.......B..
   11b90:	2eeb ffff 353a 001e f379 fffd 07c8 ffff     ....:5..y.......
   11ba0:	0bb2 001f ba95 fffe e114 fffe 795e 001f     ............^y..
   11bb0:	9714 ffff bb69 fffe 73e9 001f 876d 0000     ....i....s..m...
   11bc0:	976b fffe f1dc 001e 89ae 0001 75c2 fffe     k............u..
   11bd0:	ead4 001d 9b77 0002 571d fffe 57b7 001c     ....w....W...W..
   11be0:	b9fc 0003 3c2b fffe 32ec 001a e20a 0004     ....+<...2......
   11bf0:	259d fffe 788c 0017 1005 0006 141e fffe     .%...x..........
   11c00:	2693 0014 3ff5 0007 0856 fffe 3d13 0010     .&...?..V....=..
   11c10:	6d88 0008 02e4 fffe be57 000b 941c 0009     .m......W.......
   11c20:	045a fffe af0c 0006 aece 000a 0d3b fffe     Z...........;...
   11c30:	1660 0001 b885 000b 1df8 fffe fe17 fffa     `...............
   11c40:	abff 000c 36ee fffe 7298 fff4 83e8 000d     .....6...r......
   11c50:	585f fffe 82fa ffed 3ae8 000e 8274 fffe     _X.......:..t...
   11c60:	40f9 ffe6 cbb7 000e b535 fffe c0ef ffde     .@......5.......
   11c70:	3138 000f f08c fffe 19b3 ffd7 6689 000f     81...........f..
   11c80:	343d ffff 647a ffcf 6721 000f 7fe7 ffff     =4..zd..!g......
   11c90:	bca3 ffc7 2ee5 000f d302 ffff 3f7b ffc0     ............{?..
   11ca0:	ba42 000e 2cdf 0000 0bf1 ffb9 0646 000e     B....,......F...
   11cb0:	8ca6 0000 4242 ffb2 10b6 000d f155 0000     ....BB......U...
   11cc0:	0394 ffac d82b 000b 59c1 0001 718c ffa6     ....+....Y...q..
   11cd0:	5c24 000a c499 0001 add0 ffa1 9d1b 0008     $\..............
   11ce0:	3065 0002 d98a ff9d 9c99 0006 9b8c 0002     e0..............
   11cf0:	14d9 ff9b 5d49 0004 0451 0003 7e3c ff99     ....I]..Q...<~..
   11d00:	e301 0001 68e0 0003 3200 ff99 32cc ffff     .....h...2...2..
   11d10:	c749 0003 499b ff9a 52f3 fffc 1d8e 0004     I....I...R......
   11d20:	db13 ff9c 4aff fff9 69a3 0004 f85e ffa0     .....J...i..^...
   11d30:	23b3 fff6 a976 0004 aec3 ffa6 e708 fff2     .#..v...........
   11d40:	daf9 0004 0644 ffae a01e ffef fc27 0004     ....D.......'...
   11d50:	010f ffb7 5b2b ffec 0b0d 0005 9afa ffc1     ....+[..........
   11d60:	2564 ffe9 05d4 0005 c908 ffcd 0cdf ffe6     d%..............
   11d70:	eac8 0004 7900 ffdb 206e ffe3 b864 0004     .....y..n ..d...
   11d80:	911d ffea 6f7a ffe0 6d58 0004 efc9 fffa     ....zo..Xm......
   11d90:	09d3 ffde 0894 0004 6b76 000c ff7f ffdb     ........vk......
   11da0:	8950 0003 d297 001e 607e ffda ef17 0002     P.......~`......
   11db0:	ebaa 0031 3c92 ffd9 39ca 0002 7566 0045     ..1..<...9..fuE.
   11dc0:	a2fc ffd8 69ad 0001 2714 0059 a23a ffd8     .....i...'Y.:...
   11dd0:	7f68 0000 b0f7 006c 47c2 ffd9 7c14 ffff     h.....l..G...|..
   11de0:	bcec 007f 9fb9 ffda 6132 fffe ef18 0091     ........2a......
   11df0:	b4ad ffdc 30bc fffd e6d1 00a2 8f4d ffdf     .....0......M...
   11e00:	ed1e fffb 3f95 00b2 3623 ffe3 9938 fffa     .....?..#6..8...
   11e10:	9232 00bf ad50 ffe7 385a fff9 7606 00ca     2...P...Z8...v..
   11e20:	f652 ffec ce41 fff7 8266 00d2 0fc2 fff3     R...A...f.......
   11e30:	5f11 fff6 5013 00d7 f52a fff9 ef4d fff4     ._...P..*...M...
   11e40:	7ad4 00d8 9ecf 0001 83cb fff3 a31d 00d5     .z..............
   11e50:	019e 000a 21a7 fff2 6fc6 00ce 0f03 0013     .....!...o......
   11e60:	ce37 fff0 8fc7 00c2 b4e9 001c 8ef8 ffef     7...............
   11e70:	bbff 00b1 ddb8 0026 697b ffee b8f1 009b     ......&.{i......
   11e80:	7060 0031 6351 ffed 5877 0080 507a 003c     `p1.Qc..wX..zP<.
   11e90:	81f3 ffec 7b65 005f 5e75 0047 caad ffeb     ....e{_.u^G.....
   11ea0:	1310 0039 77d0 0052 427f ffeb 22b3 000d     ..9..wR..B..."..
   11eb0:	776b 005d ee09 ffea c0a6 ffdb 35e3 0068     kw]..........5h.
   11ec0:	d16a ffea 1766 ffa5 8a01 0072 f026 ffea     j...f.....r.&...
   11ed0:	6665 ff69 493c 007c 4d0b ffeb 028a ff29     efi.<I|..M....).
   11ee0:	4846 0085 ea15 ffeb 5670 fee4 5bab 008d     FH......pV...[..
   11ef0:	c853 ffec e251 fe9b 587d 0094 e7ca ffed     S...Q...}X......
   11f00:	3b92 fe50 1511 009a 4764 ffef 0bf7 fe02     .;P.....dG......
   11f10:	69be 009e e4d4 fff0 106d fdb2 31ac 00a1     .i......m....1..
   11f20:	bc85 fff2 176e fd61 4baa 00a2 c98a fff4     ....n.a..K......
   11f30:	fefc fd0f 9b01 00a1 058f fff7 b22d fcbf     ............-...
   11f40:	0853 009f 68d6 fff9 2649 fc71 826d 009a     S....h..I&q.m...
   11f50:	ea2c fffb 5782 fc25 ff1b 0093 7eef fffe     ,....W%......~..
   11f60:	4545 fbdd 7bf4 008b 1b0f 0001 ee23 fb99     EE...{......#...
   11f70:	ff13 0080 b122 0003 4b65 fb5c 97cb 0074     ...."...eK\...t.
   11f80:	326a 0006 4c4b fb25 5f3a 0066 8ef5 0008     j2..KL%.:_f.....
   11f90:	d104 faf5 78d3 0056 b5b4 000a a569 face     .....xV.....i...
   11fa0:	12bf 0045 94a4 000c 7b91 fab0 662d 0032     ..E......{..-f2.
   11fb0:	18f4 000e e641 fa9b b775 001e 2f30 000f     ....A...u...0/..
   11fc0:	5358 fa91 561e 000a c37f 000f 5358 fa91     XS...V......XS..
   11fd0:	a9e2 fff5 c37f 000f e641 fa9b 488b ffe1     ........A....H..
   11fe0:	2f30 000f 7b91 fab0 99d3 ffcd 18f4 000e     0/...{..........
   11ff0:	a569 face ed41 ffba 94a4 000c d104 faf5     i...A...........
   12000:	872d ffa9 b5b4 000a 4c4b fb25 a0c6 ff99     -.......KL%.....
   12010:	8ef5 0008 4b65 fb5c 6835 ff8b 326a 0006     ....eK\.5h..j2..
   12020:	ee23 fb99 00ed ff7f b122 0003 4545 fbdd     #......."...EE..
   12030:	840c ff74 1b0f 0001 5782 fc25 00e5 ff6c     ..t......W%...l.
   12040:	7eef fffe 2649 fc71 7d93 ff65 ea2c fffb     .~..I&q..}e.,...
   12050:	b22d fcbf f7ad ff60 68d6 fff9 fefc fd0f     -.....`..h......
   12060:	64ff ff5e 058f fff7 176e fd61 b456 ff5d     .d^.....n.a.V.].
   12070:	c98a fff4 106d fdb2 ce54 ff5e bc85 fff2     ....m...T.^.....
   12080:	0bf7 fe02 9642 ff61 e4d4 fff0 3b92 fe50     ....B.a......;P.
   12090:	eaef ff65 4764 ffef e251 fe9b a783 ff6b     ..e.dG..Q.....k.
   120a0:	e7ca ffed 5670 fee4 a455 ff72 c853 ffec     ....pV..U.r.S...
   120b0:	028a ff29 b7ba ff7a ea15 ffeb 6665 ff69     ..)...z.....efi.
   120c0:	b6c4 ff83 4d0b ffeb 1766 ffa5 75ff ff8d     .....M..f....u..
   120d0:	f026 ffea c0a6 ffdb ca1d ff97 d16a ffea     &...........j...
   120e0:	22b3 000d 8895 ffa2 ee09 ffea 1310 0039     ."............9.
   120f0:	8830 ffad 427f ffeb 7b65 005f a18b ffb8     0....B..e{_.....
   12100:	caad ffeb 5877 0080 af86 ffc3 81f3 ffec     ....wX..........
   12110:	b8f1 009b 8fa0 ffce 6351 ffed bbff 00b1     ........Qc......
   12120:	2248 ffd9 697b ffee 8fc7 00c2 4b17 ffe3     H"..{i.......K..
   12130:	8ef8 ffef 6fc6 00ce f0fd ffec ce37 fff0     .....o......7...
   12140:	a31d 00d5 fe62 fff5 21a7 fff2 7ad4 00d8     ....b....!...z..
   12150:	6131 fffe 83cb fff3 5013 00d7 0ad6 0006     1a.......P......
   12160:	ef4d fff4 8266 00d2 f03e 000c 5f11 fff6     M...f...>...._..
   12170:	7606 00ca 09ae 0013 ce41 fff7 9232 00bf     .v......A...2...
   12180:	52b0 0018 385a fff9 3f95 00b2 c9dd 001c     .R..Z8...?......
   12190:	9938 fffa e6d1 00a2 70b3 0020 ed1e fffb     8........p .....
   121a0:	ef18 0091 4b53 0023 30bc fffd bcec 007f     ....SK#..0......
   121b0:	6047 0025 6132 fffe b0f7 006c b83e 0026     G`%.2a....l.>.&.
   121c0:	7c14 ffff 2714 0059 5dc6 0027 7f68 0000     .|...'Y..]'.h...
   121d0:	7566 0045 5d04 0027 69ad 0001 ebaa 0031     fuE..]'..i....1.
   121e0:	c36e 0026 39ca 0002 d297 001e 9f82 0025     n.&..9........%.
   121f0:	ef17 0002 6b76 000c 0081 0024 8950 0003     ....vk....$.P...
   12200:	efc9 fffa f62d 0021 0894 0004 911d ffea     ....-.!.........
   12210:	9086 001f 6d58 0004 7900 ffdb df92 001c     ....Xm...y......
   12220:	b864 0004 c908 ffcd f321 0019 eac8 0004     d.......!.......
   12230:	9afa ffc1 da9c 0016 05d4 0005 010f ffb7     ................
   12240:	a4d5 0013 0b0d 0005 0644 ffae 5fe2 0010     ........D...._..
   12250:	fc27 0004 aec3 ffa6 18f8 000d daf9 0004     '...............
   12260:	f85e ffa0 dc4d 0009 a976 0004 db13 ff9c     ^...M...v.......
   12270:	b501 0006 69a3 0004 499b ff9a ad0d 0003     .....i...I......
   12280:	1d8e 0004 3200 ff99 cd34 0000 c749 0003     .....2..4...I...
   12290:	7e3c ff99 1cff fffe 68e0 0003 14d9 ff9b     <~.......h......
   122a0:	a2b7 fffb 0451 0003 d98a ff9d 6367 fff9     ....Q.......gc..
   122b0:	9b8c 0002 add0 ffa1 62e5 fff7 3065 0002     .........b..e0..
   122c0:	718c ffa6 a3dc fff5 c499 0001 0394 ffac     .q..............
   122d0:	27d5 fff4 59c1 0001 4242 ffb2 ef4a fff2     .'...Y..BB..J...
   122e0:	f155 0000 0bf1 ffb9 f9ba fff1 8ca6 0000     U...............
   122f0:	3f7b ffc0 45be fff1 2cdf 0000 bca3 ffc7     {?...E...,......
   12300:	d11b fff0 d302 ffff 647a ffcf 98df fff0     ........zd......
   12310:	7fe7 ffff 19b3 ffd7 9977 fff0 343d ffff     ........w...=4..
   12320:	c0ef ffde cec8 fff0 f08c fffe 40f9 ffe6     .............@..
   12330:	3449 fff1 b535 fffe 82fa ffed c518 fff1     I4..5...........
   12340:	8274 fffe 7298 fff4 7c18 fff2 585f fffe     t....r...|.._X..
   12350:	fe17 fffa 5401 fff3 36ee fffe 1660 0001     .....T...6..`...
   12360:	477b fff4 1df8 fffe af0c 0006 5132 fff5     {G..........2Q..
   12370:	0d3b fffe be57 000b 6be4 fff6 045a fffe     ;...W....k..Z...
   12380:	3d13 0010 9278 fff7 02e4 fffe 2693 0014     .=..x........&..
   12390:	c00b fff8 0856 fffe 788c 0017 effb fff9     ....V....x......
   123a0:	141e fffe 32ec 001a 1df6 fffb 259d fffe     .....2.......%..
   123b0:	57b7 001c 4604 fffc 3c2b fffe ead4 001d     .W...F..+<......
   123c0:	6489 fffd 571d fffe f1dc 001e 7652 fffe     .d...W......Rv..
   123d0:	75c2 fffe 73e9 001f 7893 ffff 976b fffe     .u...s...x..k...
   123e0:	795e 001f 68ec 0000 bb69 fffe 0bb2 001f     ^y...h..i.......
   123f0:	456b 0001 e114 fffe 353a 001e 0c87 0002     kE......:5......
   12400:	07c8 ffff 00f7 001d bd1e 0002 2eeb ffff     ................
   12410:	7a5c 001b 5675 0003 55ec ffff ad25 0019     \z..uV...U..%...
   12420:	d830 0003 7c46 ffff a522 0017 424d 0004     0...F|.."...MB..
   12430:	a17f ffff 6e12 0015 951c 0004 c52b ffff     .....n......+...
   12440:	1373 0013 d13b 0004 e6ea ffff a066 0010     s...;.......f...
   12450:	f78b 0004 066a 0000 1f8b 000e 092a 0005     ....j.......*...
   12460:	236b 0000 9ae6 000b 0768 0005 3db4 0000     k#......h....=..
   12470:	1bc6 0009 f3c2 0004 551e 0000 aab3 0006     .........U......
   12480:	cfd7 0004 698e 0000 4f5f 0004 9d5f 0004     .....i.._O.._...
   12490:	7af6 0000 109b 0002 5e28 0004 8952 0000     .z......(^..R...
   124a0:	f44f ffff 1406 0004 94ab 0000 ff75 fffd     O...........u...
   124b0:	c0d4 0003 9d12 0000 361d fffc 6668 0003     .........6..hf..
   124c0:	a2a3 0000 9b6c fffa 068e 0003 a582 0000     ....l...........
   124d0:	31a8 fff9 a304 0002 a5d7 0000 fa39 fff7     .1..........9...
   124e0:	3d73 0002 a3d3 0000 f5bd fff6 d76c 0001     s=..........l...
   124f0:	9fab 0000 240d fff6 7261 0001 9995 0000     .....$..ar......
   12500:	8454 fff5 0fa9 0001 91ce 0000 1517 fff5     T...............
   12510:	b075 0000 8892 0000 d44e fff4 55d5 0000     u.......N....U..
   12520:	7e1c 0000 bf71 fff4 00b5 0000 72ab 0000     .~..q........r..
   12530:	d38d fff4 b1db ffff 6679 0000 0d55 fff5     ........yf..U...
   12540:	69e6 ffff 59c2 0000 6935 fff5 2953 ffff     .i...Y..5i..S)..
   12550:	4cbb 0000 e363 fff5 f07b fffe 3f99 0000     .L..c...{....?..
   12560:	77f4 fff6 bf95 fffe 328d 0000 22e7 fff7     .w.......2..."..
   12570:	96b7 fffe 25c4 0000 e03b fff7 75d9 fffe     .....%..;....u..
   12580:	1967 0000 abf6 fff8 5cd9 fffe 0d98 0000     g........\......
   12590:	823a fff9 4b79 fffe 0279 0000 5f4a fffa     :...yK..y...J_..
   125a0:	4165 fffe f823 ffff 3f9b fffb 3e38 fffe     eA..#....?..8>..
   125b0:	eeab ffff 1fd8 fffc 4179 fffe e624 ffff     ........yA..$...
   125c0:	fcec fffc 4aa2 fffe de99 ffff d407 fffd     .....J..........
   125d0:	5923 fffe d812 ffff a2a5 fffe 6c63 fffe     #Y..........cl..
   125e0:	d294 ffff 668e ffff 83c4 fffe ce1e ffff     .....f..........
   125f0:	1ddc 0000 9ea4 fffe caac ffff c6f9 0000     ................
   12600:	bc62 fffe c838 ffff 609e 0001 dc5f fffe     b...8....`.._...
   12610:	c6b7 ffff e9d6 0001 fdfd fffe c61c ffff     ................
   12620:	61f5 0002 20a9 ffff c659 ffff c899 0002     .a... ..Y.......
   12630:	43d2 ffff c75d ffff 1da7 0003 66f4 ffff     .C..]........f..
   12640:	c915 ffff 6143 0003 8993 ffff cb6e ffff     ....Ca......n...
   12650:	93ca 0003 ab3e ffff ce53 ffff b5d3 0003     ....>...S.......
   12660:	cb90 ffff d1b0 ffff c81e 0003 ea31 ffff     ............1...
   12670:	d571 ffff cb9b 0003 06d3 0000 d980 ffff     q...............
   12680:	c157 0003 213a 0000 ddca ffff aa7e 0003     W...:!......~...
   12690:	3932 0000 e23a ffff 8852 0003 4e94 0000     29..:...R....N..
   126a0:	e6bf ffff 5c26 0003 6147 0000 eb46 ffff     ....&\..Ga..F...
   126b0:	2754 0003 713b 0000 efc0 ffff eb3f 0002     T'..;q......?...
   126c0:	7e6c 0000 f41e ffff a945 0002 88e0 0000     l~......E.......
   126d0:	f852 ffff 62c1 0002 90a7 0000 fc51 ffff     R....b......Q...
   126e0:	1905 0002 95d9 0000 000f 0000 cd53 0001     ............S...
   126f0:	9893 0000 0387 0000 80de 0001 98fd 0000     ................
   12700:	06af 0000 34c2 0001 9740 0000 0984 0000     .....4..@.......
   12710:	ea08 0000 938b 0000 0c00 0000 a19e 0000     ................
   12720:	8e13 0000 0e22 0000 5c58 0000 870a 0000     ...."...X\......
   12730:	0fea 0000 1af1 0000 7ea9 0000 1157 0000     .........~..W...
   12740:	de07 ffff 7527 0000 126b 0000 a61b ffff     ....'u..k.......
   12750:	6abb 0000 1329 0000 7394 ffff 5f9b 0000     .j..)....s..._..
   12760:	1395 0000 46c0 ffff 53fd 0000 13b3 0000     .....F...S......
   12770:	1fd0 ffff 4812 0000 138a 0000 fede fffe     .....H..........
   12780:	3c0b 0000 131e 0000 e3ed fffe 3014 0000     .<...........0..
   12790:	1276 0000 cee9 fffe 2457 0000 119a 0000     v.......W$......
   127a0:	bfac fffe 18f9 0000 108f 0000 b5fe fffe     ................
   127b0:	0e1b 0000 0f5d 0000 b198 fffe 03da 0000     ....]...........
   127c0:	0e0c 0000 b224 fffe fa50 ffff 0ca2 0000     ....$...P.......
   127d0:	b742 fffe f18f ffff 0b27 0000 c089 fffe     B.......'.......
   127e0:	e9a8 ffff 09a0 0000 cd89 fffe e2a6 ffff     ................
   127f0:	0814 0000 ddcd fffe dc92 ffff 0689 0000     ................
   12800:	f0dd fffe d770 ffff 0504 0000 0640 ffff     ....p.......@...
   12810:	d33e ffff 038a 0000 1d7f ffff cffb ffff     >...............
   12820:	0220 0000 3623 ffff cda0 ffff 00c9 0000      ...#6..........
   12830:	4fbb ffff cc24 ffff ff8a ffff 69db ffff     .O..$........i..
   12840:	cb7d ffff fe64 ffff 841a ffff cb9b ffff     }...d...........
   12850:	fd59 ffff 9e1b ffff cc71 ffff fc6b ffff     Y.......q...k...
   12860:	b786 ffff cded ffff fb9c ffff d00c ffff     ................
   12870:	cffe ffff faeb ffff e767 ffff d291 ffff     ........g.......
   12880:	fa5a ffff fd5c ffff d595 ffff f9e8 ffff     Z...\...........
   12890:	11b5 0000 d8f5 ffff f994 ffff 244c 0000     ............L$..
   128a0:	dc9e ffff f95c ffff 34ff 0000 e07f ffff     ....\....4......
   128b0:	f941 ffff 43b8 0000 e486 ffff f93f ffff     A....C......?...
   128c0:	5067 0000 e8a1 ffff f955 ffff 5b08 0000     gP......U....[..
   128d0:	ecc0 ffff f982 ffff 639b 0000 f0d5 ffff     .........c......
   128e0:	f9c1 ffff 6a2a 0000 f4d2 ffff fa13 ffff     ....*j..........
   128f0:	6ec3 0000 f8aa ffff fa73 ffff 717c 0000     .n......s...|q..
   12900:	fc53 ffff fae0 ffff 726f 0000 ffc3 ffff     S.......or......
   12910:	fb56 ffff 71ba 0000 02f1 0000 fbd5 ffff     V....q..........
   12920:	6f80 0000 05d9 0000 fc59 ffff 6be6 0000     .o......Y....k..
   12930:	0875 0000 fcdf ffff 6712 0000 0ac1 0000     u........g......
   12940:	fd67 ffff 612c 0000 0cbb 0000 fdee ffff     g...,a..........
   12950:	5a60 0000 0e62 0000 fe73 ffff 52d4 0000     `Z..b...s....R..
   12960:	0fb7 0000 fef2 ffff 4ab4 0000 10bb 0000     .........J......
   12970:	ff6d ffff 4225 0000 1170 0000 ffe0 ffff     m...%B..p.......
   12980:	3950 0000 11da 0000 0049 0000 3058 0000     P9......I...X0..
   12990:	11fc 0000 00ab 0000 2760 0000 11dd 0000     ........`'......
   129a0:	0104 0000 1e87 0000 1180 0000 0152 0000     ............R...
   129b0:	15eb 0000 10ed 0000 0195 0000 0da6 0000     ................
   129c0:	1028 0000 01ce 0000 05ce 0000 0f39 0000     (...........9...
   129d0:	01fc 0000 fe78 ffff 0e26 0000 0220 0000     ....x...&... ...
   129e0:	f7b2 ffff 0cf5 0000 023a 0000 f18b ffff     ........:.......
   129f0:	0bad 0000 0249 0000 ec0d ffff 0a54 0000     ....I.......T...
   12a00:	0250 0000 e73d ffff 08f0 0000 024e 0000     P...=.......N...
   12a10:	e322 ffff 0787 0000 0244 0000 dfbb ffff     ".......D.......
   12a20:	061f 0000 0232 0000 dd07 ffff 04bb 0000     ....2...........
   12a30:	021a 0000 db02 ffff 0361 0000 01fd 0000     ........a.......
   12a40:	d9a7 ffff 0215 0000 01da 0000 d8ee ffff     ................
   12a50:	00db 0000 01b4 0000 d8cc ffff ffb5 ffff     ................
   12a60:	018a 0000 d938 ffff fea6 ffff 015e 0000     ....8.......^...
   12a70:	da25 ffff fdb0 ffff 0131 0000 db87 ffff     %.......1.......
   12a80:	fcd4 ffff 0102 0000 dd4f ffff fc14 ffff     ........O.......
   12a90:	00d4 0000 df71 ffff fb70 ffff 00a6 0000     ....q...p.......
   12aa0:	e1dc ffff fae9 ffff 0079 0000 e485 ffff     ........y.......
   12ab0:	fa7d ffff 004e 0000 e75c ffff fa2d ffff     }...N...\...-...
   12ac0:	0025 0000 ea54 ffff f9f8 ffff ffff ffff     %...T...........
   12ad0:	ed60 ffff f9dc ffff ffdc ffff f074 ffff     `...........t...
   12ae0:	f9d8 ffff ffbb ffff f384 ffff f9ea ffff     ................
   12af0:	ff9e ffff f686 ffff fa10 ffff ff85 ffff     ................
   12b00:	f970 ffff fa49 ffff ff6f ffff fc3a ffff     p...I...o...:...
   12b10:	fa91 ffff ff5c ffff fedc ffff fae7 ffff     ....\...........
   12b20:	ff4e ffff 014f 0000 fb49 ffff ff43 ffff     N...O...I...C...
   12b30:	038f 0000 fbb4 ffff ff3b ffff 0598 0000     ........;.......
   12b40:	fc27 ffff ff37 ffff 0766 0000 fc9f ffff     '...7...f.......
   12b50:	ff35 ffff 08f8 0000 fd19 ffff ff37 ffff     5...........7...
   12b60:	0a4b 0000 fd95 ffff ff3b ffff 0b62 0000     K.......;...b...
   12b70:	fe10 ffff ff42 ffff 0c3a 0000 fe89 ffff     ....B...:.......
   12b80:	ff4b ffff 0cd8 0000 fefe ffff ff56 ffff     K...........V...
   12b90:	0d3c 0000 ff6e ffff ff62 ffff 0d6a 0000     <...n...b...j...
   12ba0:	ffd8 ffff ff70 ffff 0d65 0000 0039 0000     ....p...e...9...
   12bb0:	ff7e ffff 0d31 0000 0093 0000 ff8e ffff     ~...1...........
   12bc0:	0cd2 0000 00e4 0000 ff9d ffff 0c4d 0000     ............M...
   12bd0:	012d 0000 ffad ffff 0ba6 0000 016b 0000     -...........k...
   12be0:	ffbd ffff 0ae2 0000 01a0 0000 ffcd ffff     ................
   12bf0:	0a07 0000 01cb 0000 ffdc ffff 0918 0000     ................
   12c00:	01ed 0000 ffea ffff 081b 0000 0205 0000     ................
   12c10:	fff8 ffff 0713 0000 0215 0000 0004 0000     ................
   12c20:	0607 0000 021b 0000 0010 0000 04f9 0000     ................
   12c30:	021a 0000 001b 0000 03ee 0000 0212 0000     ................
   12c40:	0024 0000 02e8 0000 0202 0000 002d 0000     $...........-...
   12c50:	01ec 0000 01ed 0000 0034 0000 00fc 0000     ........4.......
   12c60:	01d3 0000 003a 0000 001a 0000 01b4 0000     ....:...........
   12c70:	003e 0000 ff4a ffff 0191 0000 0042 0000     >...J.......B...
   12c80:	fe8b ffff 016b 0000 0044 0000 fddf ffff     ....k...D.......
   12c90:	0144 0000 0045 0000 fd47 ffff 011a 0000     D...E...G.......
   12ca0:	0045 0000 fcc5 ffff 00f0 0000 0044 0000     E...........D...
   12cb0:	fc58 ffff 00c6 0000 0042 0000 fbff ffff     X.......B.......
   12cc0:	009c 0000 0040 0000 fbbc ffff 0073 0000     ....@.......s...
   12cd0:	003c 0000 fb8c ffff 004b 0000 0039 0000     <.......K...9...
   12ce0:	fb70 ffff 0025 0000 0034 0000 fb67 ffff     p...%...4...g...
   12cf0:	0002 0000 002f 0000 fb6e ffff ffe2 ffff     ..../...n.......
   12d00:	002a 0000 fb85 ffff ffc4 ffff 0025 0000     *...........%...
   12d10:	fbaa ffff ffaa ffff 0020 0000 fbdb ffff     ........ .......
   12d20:	ff92 ffff 001a 0000 fc18 ffff ff7e ffff     ............~...
   12d30:	0015 0000 fc5e ffff ff6d ffff 000f 0000     ....^...m.......
   12d40:	fcac ffff ff5f ffff 000a 0000 fcff ffff     ...._...........
   12d50:	ff54 ffff 0005 0000 fd57 ffff ff4d ffff     T.......W...M...
   12d60:	0001 0000 fdb2 ffff ff49 ffff fffe ffff     ........I.......
   12d70:	fe0e ffff ff47 ffff fffa ffff fe6b ffff     ....G.......k...
   12d80:	ff49 ffff fff6 ffff fec6 ffff ff4c ffff     I...........L...
   12d90:	fff3 ffff ff1e ffff ff52 ffff fff0 ffff     ........R.......
   12da0:	ff74 ffff ff5a ffff ffee ffff ffc4 ffff     t...Z...........
   12db0:	ff64 ffff ffec ffff 000f 0000 ff6f ffff     d...........o...
   12dc0:	ffeb ffff 0054 0000 ff7b ffff ffea ffff     ....T...{.......
   12dd0:	0094 0000 ff88 ffff ffe9 ffff 00cc 0000     ................
   12de0:	ff96 ffff ffe9 ffff 00fe 0000 ffa4 ffff     ................
   12df0:	ffe9 ffff 0128 0000 ffb3 ffff ffe9 ffff     ....(...........
   12e00:	014b 0000 ffc1 ffff ffea ffff 0167 0000     K...........g...
   12e10:	ffd0 ffff ffeb ffff 017c 0000 ffde ffff     ........|.......
   12e20:	ffec ffff 018a 0000 ffeb ffff ffed ffff     ................
   12e30:	0191 0000 fff8 ffff ffef ffff 0193 0000     ................
   12e40:	0002 0000 fff1 ffff 018e 0000 000d 0000     ................
   12e50:	fff2 ffff 0185 0000 0017 0000 fff4 ffff     ................
   12e60:	0177 0000 0020 0000 fff6 ffff 0164 0000     w... .......d...
   12e70:	0028 0000 fff8 ffff 014f 0000 002e 0000     (.......O.......
   12e80:	fffa ffff 0136 0000 0034 0000 fffc ffff     ....6...4.......
   12e90:	011a 0000 0038 0000 fffd ffff 00fd 0000     ....8...........
   12ea0:	003b 0000 ffff ffff 00df 0000 003e 0000     ;...........>...
   12eb0:	0000 0000 00bf 0000 003f 0000 0001 0000     ........?.......
   12ec0:	00a0 0000 003f 0000 0002 0000 0080 0000     ....?...........
   12ed0:	003e 0000 0003 0000 0061 0000 003d 0000     >.......a...=...
   12ee0:	0004 0000 0043 0000 003a 0000 0005 0000     ....C...:.......
   12ef0:	0026 0000 0037 0000 0006 0000 000b 0000     &...7...........
   12f00:	0034 0000 0007 0000 fff3 ffff 0030 0000     4...........0...
   12f10:	0007 0000 ffdc ffff 002c 0000 0007 0000     ........,.......
   12f20:	ffc7 ffff 0027 0000 0008 0000 ffb4 ffff     ....'...........
   12f30:	0022 0000 0008 0000 ffa4 ffff 001d 0000     "...............
   12f40:	0008 0000 ff97 ffff 0018 0000 0007 0000     ................
   12f50:	ff8b ffff 0013 0000 0007 0000 ff83 ffff     ................
   12f60:	000f 0000 0007 0000 ff7c ffff 000a 0000     ........|.......
   12f70:	0006 0000 ff78 ffff 0005 0000 0006 0000     ....x...........
   12f80:	ff76 ffff 0001 0000 0005 0000 ff77 ffff     v...........w...
   12f90:	fffe ffff 0005 0000 ff79 ffff fffb ffff     ........y.......
   12fa0:	0004 0000 ff7d ffff fff7 ffff 0003 0000     ....}...........
   12fb0:	ff82 ffff fff4 ffff 0003 0000 ff89 ffff     ................
   12fc0:	fff2 ffff 0002 0000 ff90 ffff fff0 ffff     ................
   12fd0:	0002 0000 ff99 ffff ffee ffff 0001 0000     ................
   12fe0:	ffa3 ffff ffed ffff 0000 0000 ffad ffff     ................
   12ff0:	ffec ffff 0000 0000 ffb8 ffff ffeb ffff     ................
   13000:	0000 0000 ffc2 ffff ffeb ffff 0000 0000     ................
   13010:	ffcd ffff ffeb ffff ffff ffff ffd8 ffff     ................
   13020:	ffeb ffff ffff ffff ffe3 ffff ffec ffff     ................
   13030:	ffff ffff ffed ffff ffed ffff fffe ffff     ................
   13040:	fff6 ffff ffee ffff fffe ffff ffff ffff     ................
   13050:	ffef ffff fffe ffff 0007 0000 fff0 ffff     ................
   13060:	fffe ffff 000e 0000 fff2 ffff fffe ffff     ................
   13070:	0015 0000 fff3 ffff fffe ffff 001b 0000     ................
   13080:	fff5 ffff fffe ffff 0021 0000 fff7 ffff     ........!.......
   13090:	fffe ffff 0025 0000 fff9 ffff fffe ffff     ....%...........
   130a0:	0029 0000 fffa ffff fffe ffff 002b 0000     )...........+...
   130b0:	fffc ffff fffe ffff 002d 0000 fffd ffff     ........-.......
   130c0:	fffe ffff 002e 0000 ffff ffff fffe ffff     ................
   130d0:	002f 0000 0000 0000 ffff ffff 002f 0000     /.........../...
   130e0:	0001 0000 ffff ffff 002e 0000 0002 0000     ................
   130f0:	ffff ffff 002c 0000 0003 0000 ffff ffff     ....,...........
   13100:	002a 0000 0004 0000 ffff ffff 0028 0000     *...........(...
   13110:	0005 0000 0000 0000 0025 0000 0005 0000     ........%.......
   13120:	0000 0000 0022 0000 0006 0000 0000 0000     ...."...........
   13130:	001e 0000 0006 0000 0000 0000 001b 0000     ................
   13140:	0007 0000 0000 0000 0017 0000 0007 0000     ................
   13150:	0000 0000 0014 0000 0007 0000 0000 0000     ................
   13160:	0010 0000 0007 0000 0000 0000 000c 0000     ................
   13170:	0007 0000 0000 0000 0009 0000 0007 0000     ................
   13180:	0000 0000 0005 0000 0006 0000 0000 0000     ................
   13190:	0002 0000 0006 0000 0000 0000 0000 0000     ................
   131a0:	0005 0000 0000 0000 fffd ffff 0005 0000     ................
   131b0:	0000 0000 fffb ffff 0004 0000 0000 0000     ................
   131c0:	fff8 ffff 0004 0000 0000 0000 fff6 ffff     ................
   131d0:	0003 0000 0000 0000 fff5 ffff 0003 0000     ................
   131e0:	0000 0000 fff3 ffff 0002 0000 0000 0000     ................
   131f0:	fff2 ffff 0001 0000 0000 0000 fff1 ffff     ................
   13200:	0001 0000 0000 0000 fff1 ffff 0000 0000     ................
   13210:	0000 0000 fff0 ffff 0000 0000 0000 0000     ................
   13220:	fff0 ffff 0000 0000 0000 0000 fff0 ffff     ................
	...
   13238:	fff1 ffff 0000 0000 0000 0000 fff1 ffff     ................
   13248:	ffff ffff 0000 0000 fff2 ffff ffff ffff     ................
   13258:	0000 0000 fff3 ffff ffff ffff 0000 0000     ................
   13268:	fff4 ffff fffe ffff 0000 0000 fff5 ffff     ................
   13278:	fffe ffff 0000 0000 fff6 ffff fffe ffff     ................
   13288:	0000 0000 fff8 ffff fffe ffff 0000 0000     ................
   13298:	fff9 ffff fffe ffff 0000 0000 fffa ffff     ................
   132a8:	fffe ffff 0000 0000 fffb ffff fffe ffff     ................
   132b8:	0000 0000 fffd ffff fffe ffff 0000 0000     ................
   132c8:	fffe ffff fffe ffff 0000 0000 ffff ffff     ................
   132d8:	fffe ffff 0000 0000 0000 0000 fffe ffff     ................
	...
   132f0:	ffff ffff 0000 0000 0001 0000 ffff ffff     ................
   13300:	0000 0000 0002 0000 ffff ffff 0000 0000     ................
   13310:	0003 0000 ffff ffff 0000 0000 0003 0000     ................
   13320:	ffff ffff 0000 0000 0004 0000 ffff ffff     ................
   13330:	0000 0000 0004 0000 0000 0000 0000 0000     ................
   13340:	0005 0000 0000 0000 0000 0000 0005 0000     ................
	...
   13358:	0005 0000 0000 0000 0000 0000 0005 0000     ................
	...
   13370:	0005 0000 0000 0000 0000 0000 0005 0000     ................
	...
   13388:	0005 0000 0000 0000 0000 0000 0005 0000     ................
	...
   133a0:	0004 0000 0000 0000 0000 0000 0004 0000     ................
	...
   133b8:	0004 0000 0000 0000 0000 0000 0003 0000     ................
	...
   133d0:	0003 0000 0000 0000 0000 0000 0002 0000     ................
	...
   133e8:	0002 0000 0000 0000 0000 0000 0002 0000     ................
	...
   13400:	0001 0000 0000 0000 0000 0000 0001 0000     ................
	...
   13460:	ffff ffff 0000 0000 0000 0000 ffff ffff     ................
	...
   13478:	ffff ffff 0000 0000 0000 0000 ffff ffff     ................
	...
   13490:	ffff ffff 0000 0000 0000 0000 ffff ffff     ................
	...
   134a8:	ffff ffff 0000 0000 0000 0000 ffff ffff     ................
	...
   134c0:	ffff ffff 0000 0000 0000 0000 ffff ffff     ................
	...
   134d8:	ffff ffff 0000 0000 0000 0000 ffff ffff     ................
	...
   134f0:	ffff ffff 0000 0000 0000 0000 ffff ffff     ................
	...
   13508:	ffff ffff 0000 0000 0000 0000 ffff ffff     ................
	...
   13520:	ffff ffff 0000 0000 0000 0000 0000 0000     ................
	...

000137cc <main>:
   137cc:	ff010113          	addi	sp,sp,-16 # fff0 <_start+0xfff0>
   137d0:	00002637          	lui	a2,0x2
   137d4:	00000593          	li	a1,0
   137d8:	19000513          	li	a0,400
   137dc:	00112623          	sw	ra,12(sp)
   137e0:	00812423          	sw	s0,8(sp)
   137e4:	00912223          	sw	s1,4(sp)
   137e8:	aa9fc0ef          	jal	ra,10290 <memset>
   137ec:	000107b7          	lui	a5,0x10
   137f0:	00014637          	lui	a2,0x14
   137f4:	00001537          	lui	a0,0x1
   137f8:	7cc78793          	addi	a5,a5,1996 # 107cc <H>
   137fc:	000132b7          	lui	t0,0x13
   13800:	8a860613          	addi	a2,a2,-1880 # 138a8 <S>
   13804:	99050513          	addi	a0,a0,-1648 # 990 <_start+0x990>
   13808:	00000393          	li	t2,0
   1380c:	00f12023          	sw	a5,0(sp)
   13810:	7cc28293          	addi	t0,t0,1996 # 137cc <main>
   13814:	00100313          	li	t1,1
   13818:	00052683          	lw	a3,0(a0)
   1381c:	00012783          	lw	a5,0(sp)
   13820:	00060713          	mv	a4,a2
   13824:	00060413          	mv	s0,a2
   13828:	0007a603          	lw	a2,0(a5)
   1382c:	00072483          	lw	s1,0(a4)
   13830:	40c685b3          	sub	a1,a3,a2
   13834:	00649463          	bne	s1,t1,1383c <main+0x70>
   13838:	00c685b3          	add	a1,a3,a2
   1383c:	00b52023          	sw	a1,0(a0)
   13840:	0047a683          	lw	a3,4(a5)
   13844:	00472483          	lw	s1,4(a4)
   13848:	40d58633          	sub	a2,a1,a3
   1384c:	00649463          	bne	s1,t1,13854 <main+0x88>
   13850:	00d58633          	add	a2,a1,a3
   13854:	00c52023          	sw	a2,0(a0)
   13858:	0087a583          	lw	a1,8(a5)
   1385c:	00872483          	lw	s1,8(a4)
   13860:	00c78793          	addi	a5,a5,12
   13864:	40b606b3          	sub	a3,a2,a1
   13868:	00649463          	bne	s1,t1,13870 <main+0xa4>
   1386c:	00b606b3          	add	a3,a2,a1
   13870:	00d52023          	sw	a3,0(a0)
   13874:	00c70713          	addi	a4,a4,12
   13878:	faf298e3          	bne	t0,a5,13828 <main+0x5c>
   1387c:	00138393          	addi	t2,t2,1
   13880:	40000793          	li	a5,1024
   13884:	00450513          	addi	a0,a0,4
   13888:	00c40613          	addi	a2,s0,12
   1388c:	f8f396e3          	bne	t2,a5,13818 <main+0x4c>
   13890:	00c12083          	lw	ra,12(sp)
   13894:	00812403          	lw	s0,8(sp)
   13898:	19002503          	lw	a0,400(zero) # 190 <_start+0x190>
   1389c:	00412483          	lw	s1,4(sp)
   138a0:	01010113          	addi	sp,sp,16
   138a4:	00008067          	ret

000138a8 <S>:
	...
   138c0:	00000001 00000001 00000001 00000000     ................
	...
   138d8:	00000001 00000001 00000001 00000000     ................
   138e8:	00000001 00000001 00000001 00000000     ................
	...
   13900:	00000001 00000000 00000001 00000000     ................
   13910:	00000001 00000000 00000000 00000000     ................
   13920:	00000000 00000001 00000001 00000001     ................
	...
   1393c:	00000001 00000001 00000001 00000000     ................
	...
   13954:	00000001 00000001 00000000 00000000     ................
   13964:	00000000 00000001 00000000 00000001     ................
   13974:	00000000 00000001 00000000 00000000     ................
   13984:	00000000 00000001 00000001 00000001     ................
	...
   139ac:	00000001 00000000 00000001 00000000     ................
   139bc:	00000001 00000000 00000001 00000000     ................
   139cc:	00000001 00000000 00000000 00000000     ................
   139dc:	00000001 00000001 00000000 00000000     ................
   139ec:	00000000 00000001 00000001 00000000     ................
	...
   13a10:	00000001 00000001 00000001 00000000     ................
	...
   13a30:	00000001 00000000 00000001 00000000     ................
	...
   13a48:	00000001 00000001 00000000 00000000     ................
   13a58:	00000000 00000001 00000001 00000000     ................
	...
   13a80:	00000001 00000001 00000000 00000000     ................
   13a90:	00000000 00000001 00000001 00000001     ................
	...
   13ac0:	00000001 00000000 00000001 00000000     ................
	...
   13ad8:	00000001 00000000 00000001 00000000     ................
   13ae8:	00000001 00000000 00000000 00000000     ................
   13af8:	00000000 00000001 00000000 00000001     ................
	...
   13b20:	00000001 00000000 00000000 00000000     ................
   13b30:	00000000 00000001 00000000 00000000     ................
   13b40:	00000000 00000001 00000001 00000001     ................
	...
   13b5c:	00000001 00000000 00000000 00000000     ................
	...
   13b80:	00000001 00000000 00000001 00000000     ................
	...
   13b98:	00000001 00000000 00000000 00000000     ................
   13ba8:	00000000 00000001 00000001 00000000     ................
	...
   13bc0:	00000001 00000001 00000001 00000000     ................
	...
   13be0:	00000001 00000000 00000000 00000000     ................
   13bf0:	00000000 00000001 00000000 00000000     ................
   13c00:	00000000 00000001 00000000 00000000     ................
	...
   13c18:	00000001 00000001 00000000 00000000     ................
   13c28:	00000000 00000001 00000001 00000000     ................
	...
   13c40:	00000001 00000000 00000000 00000000     ................
	...
   13c64:	00000001 00000000 00000001 00000000     ................
	...
   13c7c:	00000001 00000000 00000001 00000000     ................
   13c8c:	00000001 00000000 00000000 00000000     ................
   13c9c:	00000000 00000001 00000000 00000001     ................
	...
   13cb8:	00000001 00000000 00000000 00000000     ................
   13cc8:	00000000 00000001 00000000 00000001     ................
   13cd8:	00000000 00000001 00000000 00000001     ................
	...
   13cf4:	00000001 00000000 00000000 00000000     ................
	...
   13d10:	00000001 00000001 00000001 00000000     ................
	...
   13d30:	00000001 00000000 00000001 00000000     ................
	...
   13d48:	00000001 00000001 00000001 00000000     ................
	...
   13d60:	00000001 00000000 00000000 00000000     ................
   13d70:	00000001 00000001 00000001 00000000     ................
	...
   13d90:	00000001 00000000 00000001 00000000     ................
   13da0:	00000001 00000000 00000001 00000000     ................
   13db0:	00000001 00000000 00000000 00000000     ................
   13dc0:	00000001 00000001 00000000 00000000     ................
   13dd0:	00000000 00000001 00000001 00000000     ................
	...
   13de8:	00000001 00000001 00000001 00000000     ................
	...
   13e0c:	00000001 00000001 00000001 00000000     ................
	...
   13e24:	00000001 00000001 00000001 00000000     ................
	...
   13e44:	00000001 00000001 00000001 00000000     ................
	...
   13e5c:	00000001 00000001 00000001 00000001     ................
	...
   13e78:	00000001 00000001 00000001 00000000     ................
	...
   13e90:	00000001 00000001 00000001 00000000     ................
	...
   13ea8:	00000001 00000000 00000001 00000000     ................
   13eb8:	00000001 00000000 00000001 00000000     ................
   13ec8:	00000001 00000000 00000001 00000000     ................
   13ed8:	00000001 00000000 00000000 00000000     ................
   13ee8:	00000001 00000001 00000001 00000000     ................
	...
   13f00:	00000001 00000001 00000001 00000000     ................
   13f10:	00000000 00000001 00000001 00000000     ................
	...
   13f28:	00000001 00000001 00000001 00000000     ................
	...
   13f40:	00000001 00000001 00000001 00000000     ................
   13f50:	00000001 00000000 00000001 00000000     ................
   13f60:	00000001 00000000 00000001 00000000     ................
   13f70:	00000001 00000001 00000001 00000001     ................
   13f80:	00000000 00000001 00000000 00000001     ................
   13f90:	00000000 00000001 00000001 00000001     ................
	...
   13fac:	00000001 00000001 00000001 00000000     ................
   13fbc:	00000001 00000001 00000001 00000001     ................
	...
   13fd8:	00000001 00000001 00000001 00000000     ................
   13fe8:	00000000 00000001 00000001 00000001     ................
	...
   14004:	00000001 00000001 00000001 00000001     ................
   14014:	00000001 00000001 00000001 00000001     ................
   14024:	00000000 00000001 00000000 00000001     ................
   14034:	00000000 00000001 00000000 00000001     ................
   14044:	00000000 00000001 00000001 00000001     ................
   14054:	00000000 00000001 00000001 00000001     ................
   14064:	00000001 00000000 00000001 00000000     ................
   14074:	00000001 00000000 00000001 00000001     ................
   14084:	00000001 00000001 00000000 00000000     ................
   14094:	00000001 00000001 00000001 00000001     ................
   140a4:	00000001 00000001 00000001 00000000     ................
	...
   140bc:	00000001 00000001 00000001 00000001     ................
   140cc:	00000001 00000001 00000001 00000000     ................
   140dc:	00000001 00000000 00000001 00000001     ................
   140ec:	00000001 00000000 00000001 00000001     ................
   140fc:	00000001 00000001 00000000 00000001     ................
   1410c:	00000001 00000001 00000000 00000000     ................
   1411c:	00000001 00000001 00000001 00000000     ................
   1412c:	00000000 00000001 00000001 00000001     ................
   1413c:	00000001 00000001 00000001 00000001     ................
   1414c:	00000001 00000000 00000001 00000000     ................
   1415c:	00000001 00000001 00000001 00000001     ................
   1416c:	00000001 00000001 00000000 00000001     ................
   1417c:	00000000 00000001 00000000 00000001     ................
   1418c:	00000000 00000001 00000000 00000001     ................
   1419c:	00000001 00000001 00000001 00000001     ................
   141ac:	00000001 00000000 00000001 00000001     ................
   141bc:	00000001 00000001 00000001 00000001     ................
   141cc:	00000001 00000001 00000001 00000001     ................
	...
   141e4:	00000001 00000001 00000001 00000001     ................
	...
   14200:	00000001 00000001 00000001 00000000     ................
   14210:	00000000 00000001 00000001 00000001     ................
   14220:	00000001 00000001 00000001 00000001     ................
   14230:	00000001 00000001 00000001 00000001     ................
   14240:	00000000 00000001 00000000 00000001     ................
   14250:	00000001 00000001 00000000 00000000     ................
   14260:	00000000 00000001 00000001 00000001     ................
   14270:	00000000 00000001 00000001 00000001     ................
   14280:	00000001 00000001 00000001 00000001     ................
   14290:	00000001 00000000 00000001 00000000     ................
   142a0:	00000001 00000001 00000001 00000000     ................
	...
   142b8:	00000001 00000001 00000001 00000000     ................
   142c8:	00000001 00000001 00000001 00000001     ................
   142d8:	00000001 00000001 00000001 00000000     ................
   142e8:	00000000 00000001 00000001 00000001     ................
	...
   14304:	00000001 00000001 00000001 00000001     ................
   14314:	00000001 00000000 00000001 00000000     ................
   14324:	00000001 00000001 00000001 00000000     ................
	...
   1433c:	00000001 00000001 00000001 00000001     ................
   1434c:	00000001 00000001 00000000 00000001     ................
   1435c:	00000000 00000001 00000000 00000001     ................
   1436c:	00000000 00000001 00000000 00000001     ................
   1437c:	00000001 00000001 00000000 00000000     ................
   1438c:	00000001 00000001 00000001 00000000     ................
   1439c:	00000000 00000001 00000001 00000001     ................
   143ac:	00000001 00000001 00000001 00000000     ................
	...
   143c4:	00000001 00000001 00000000 00000001     ................
   143d4:	00000000 00000001 00000000 00000001     ................
   143e4:	00000000 00000001 00000000 00000001     ................
   143f4:	00000001 00000001 00000000 00000000     ................
   14404:	00000000 00000001 00000001 00000001     ................
	...
   14420:	00000001 00000001 00000001 00000001     ................
   14430:	00000001 00000001 00000000 00000000     ................
   14440:	00000000 00000001 00000001 00000001     ................
	...
   14460:	00000001 00000001 00000001 00000000     ................
	...
   14478:	00000001 00000001 00000001 00000000     ................
	...
   14490:	00000001 00000001 00000001 00000000     ................
   144a0:	00000001 00000001 00000001 00000000     ................
	...
   144b8:	00000001 00000001 00000001 00000000     ................
	...
   144d0:	00000001 00000001 00000001 00000001     ................
	...
   144ec:	00000001 00000001 00000001 00000000     ................
	...
   14504:	00000001 00000001 00000001 00000000     ................
	...
   1451c:	00000001 00000000 00000000 00000000     ................
   1452c:	00000001 00000001 00000001 00000000     ................
	...
   14544:	00000001 00000001 00000001 00000000     ................
	...
   14560:	00000001 00000001 00000001 00000000     ................
	...
   1457c:	00000001 00000000 00000001 00000000     ................
   1458c:	00000001 00000000 00000001 00000000     ................
	...
   145a8:	00000001 00000000 00000000 00000000     ................
   145b8:	00000001 00000001 00000001 00000000     ................
	...
   145d0:	00000001 00000000 00000001 00000000     ................
   145e0:	00000001 00000000 00000001 00000000     ................
	...
   145fc:	00000001 00000000 00000000 00000000     ................
   1460c:	00000001 00000001 00000000 00000000     ................
   1461c:	00000000 00000001 00000001 00000000     ................
	...
   14648:	00000001 00000001 00000001 00000000     ................
	...
   14660:	00000001 00000000 00000000 00000000     ................
   14670:	00000000 00000001 00000001 00000000     ................
	...
   1468c:	00000001 00000001 00000001 00000000     ................
	...
   146b0:	00000001 00000001 00000000 00000000     ................
	...
   146d8:	00000001 00000000 00000001 00000000     ................
   146e8:	00000001 00000000 00000001 00000000     ................
   146f8:	00000001 00000001 00000000 00000000     ................
	...
   14720:	00000001 00000000 00000001 00000000     ................
	...
   14738:	00000001 00000000 00000001 00000000     ................
   14748:	00000001 00000000 00000000 00000000     ................
   14758:	00000000 00000001 00000000 00000000     ................
	...
   14770:	00000001 00000001 00000000 00000000     ................
	...
   14798:	00000001 00000000 00000001 00000000     ................
	...
   147b0:	00000001 00000000 00000001 00000000     ................
   147c0:	00000001 00000000 00000000 00000000     ................
   147d0:	00000000 00000001 00000000 00000000     ................
	...
   147e8:	00000001 00000001 00000000 00000000     ................
	...
   14810:	00000001 00000000 00000001 00000000     ................
	...
   14828:	00000001 00000001 00000001 00000000     ................
	...
   14840:	00000001 00000000 00000000 00000000     ................
	...
   14858:	00000001 00000000 00000001 00000000     ................
	...
   1487c:	00000001 00000000 00000001 00000000     ................
   1488c:	00000001 00000000 00000001 00000000     ................
   1489c:	00000001 00000000 00000000 00000000     ................
	...
   148b8:	00000001 00000000 00000000 00000000     ................
   148c8:	00000000 00000001 00000000 00000001     ................
   148d8:	00000000 00000001 00000000 00000001     ................
	...
   148f4:	00000001 00000000 00000000 00000000     ................
	...
   14910:	00000001 00000001 00000001 00000000     ................
	...
   14930:	00000001 00000000 00000001 00000000     ................
	...
   14948:	00000001 00000001 00000001 00000000     ................
	...
   14960:	00000001 00000000 00000000 00000000     ................
   14970:	00000000 00000001 00000001 00000001     ................
	...
   1498c:	00000001 00000001 00000000 00000000     ................
   1499c:	00000000 00000001 00000001 00000001     ................
	...
   149c0:	00000001 00000001 00000001 00000000     ................
	...
   149d8:	00000001 00000000 00000000 00000000     ................
   149e8:	00000001 00000001 00000001 00000000     ................
	...
   14a04:	00000001 00000001 00000001 00000000     ................
	...
   14a1c:	00000001 00000001 00000001 00000000     ................
	...
   14a38:	00000001 00000000 00000001 00000000     ................
   14a48:	00000001 00000000 00000001 00000000     ................
   14a58:	00000001 00000000 00000001 00000000     ................
	...
   14a70:	00000001 00000001 00000001 00000000     ................
	...
   14a8c:	00000001 00000001 00000001 00000000     ................
	...
   14aa4:	00000001 00000001 00000001 00000000     ................
	...
   14abc:	00000001 00000001 00000000 00000000     ................
   14acc:	00000000 00000001 00000001 00000001     ................
	...
   14ae8:	00000001 00000001 00000001 00000000     ................
	...
   14b00:	00000001 00000000 00000001 00000000     ................
   14b10:	00000001 00000001 00000001 00000001     ................
	...
   14b2c:	00000001 00000001 00000001 00000000     ................
	...
   14b44:	00000001 00000001 00000001 00000001     ................
   14b54:	00000001 00000000 00000000 00000000     ................
   14b64:	00000001 00000001 00000001 00000000     ................
   14b74:	00000001 00000000 00000000 00000000     ................
   14b84:	00000001 00000001 00000001 00000000     ................
   14b94:	00000000 00000001 00000001 00000001     ................
	...
   14bb0:	00000001 00000001 00000001 00000001     ................
   14bc0:	00000001 00000001 00000000 00000000     ................
   14bd0:	00000000 00000001 00000001 00000001     ................
   14be0:	00000001 00000001 00000000 00000001     ................
   14bf0:	00000000 00000001 00000000 00000001     ................
   14c00:	00000000 00000001 00000001 00000001     ................
   14c10:	00000001 00000000 00000000 00000001     ................
   14c20:	00000001 00000001 00000001 00000001     ................
   14c30:	00000001 00000000 00000000 00000000     ................
   14c40:	00000001 00000001 00000001 00000001     ................
   14c50:	00000001 00000000 00000001 00000000     ................
   14c60:	00000001 00000001 00000001 00000000     ................
	...
   14c78:	00000001 00000001 00000001 00000000     ................
   14c88:	00000001 00000001 00000001 00000001     ................
   14c98:	00000001 00000001 00000001 00000000     ................
   14ca8:	00000000 00000001 00000001 00000001     ................
	...
   14cc4:	00000001 00000001 00000001 00000001     ................
   14cd4:	00000001 00000001 00000001 00000001     ................
   14ce4:	00000000 00000001 00000001 00000001     ................
   14cf4:	00000001 00000000 00000000 00000001     ................
   14d04:	00000001 00000001 00000001 00000000     ................
   14d14:	00000001 00000000 00000001 00000000     ................
   14d24:	00000001 00000001 00000001 00000001     ................
	...
   14d3c:	00000001 00000001 00000001 00000001     ................
   14d4c:	00000001 00000001 00000001 00000001     ................
   14d5c:	00000000 00000001 00000000 00000001     ................
   14d6c:	00000001 00000001 00000001 00000001     ................
   14d7c:	00000001 00000000 00000000 00000000     ................
   14d8c:	00000001 00000001 00000001 00000000     ................
   14d9c:	00000001 00000001 00000001 00000001     ................
   14dac:	00000001 00000000 00000001 00000000     ................
   14dbc:	00000001 00000001 00000001 00000001     ................
   14dcc:	00000001 00000001 00000000 00000001     ................
   14ddc:	00000000 00000001 00000001 00000001     ................
   14dec:	00000001 00000001 00000001 00000000     ................
	...
   14e04:	00000001 00000001 00000001 00000000     ................
   14e14:	00000001 00000001 00000001 00000001     ................
   14e24:	00000001 00000000 00000001 00000000     ................
   14e34:	00000001 00000001 00000001 00000000     ................
   14e44:	00000001 00000001 00000001 00000001     ................
   14e54:	00000000 00000001 00000000 00000001     ................
   14e64:	00000000 00000001 00000000 00000001     ................
   14e74:	00000001 00000001 00000000 00000001     ................
   14e84:	00000001 00000001 00000001 00000001     ................
   14e94:	00000001 00000001 00000001 00000001     ................
   14ea4:	00000001 00000000 00000000 00000000     ................
   14eb4:	00000001 00000001 00000001 00000000     ................
   14ec4:	00000000 00000001 00000001 00000001     ................
   14ed4:	00000001 00000001 00000000 00000001     ................
   14ee4:	00000001 00000001 00000001 00000000     ................
   14ef4:	00000001 00000000 00000001 00000000     ................
   14f04:	00000001 00000000 00000001 00000001     ................
   14f14:	00000001 00000000 00000001 00000001     ................
   14f24:	00000001 00000001 00000000 00000000     ................
   14f34:	00000000 00000001 00000001 00000001     ................
   14f44:	00000000 00000001 00000001 00000001     ................
   14f54:	00000000 00000001 00000001 00000001     ................
	...
   14f70:	00000001 00000001 00000001 00000001     ................
	...
   14f8c:	00000001 00000001 00000001 00000001     ................
   14f9c:	00000001 00000001 00000000 00000000     ................
   14fac:	00000001 00000001 00000001 00000000     ................
	...
   14fc4:	00000001 00000001 00000001 00000001     ................
   14fd4:	00000001 00000001 00000000 00000000     ................
   14fe4:	00000000 00000001 00000001 00000001     ................
   14ff4:	00000001 00000000 00000000 00000000     ................
   15004:	00000001 00000001 00000001 00000000     ................
	...
   1501c:	00000001 00000000 00000001 00000000     ................
   1502c:	00000001 00000001 00000001 00000001     ................
	...
   15048:	00000001 00000001 00000001 00000000     ................
	...
   15060:	00000001 00000001 00000001 00000000     ................
   15070:	00000001 00000001 00000001 00000000     ................
	...
   15088:	00000001 00000000 00000001 00000000     ................
   15098:	00000001 00000000 00000001 00000001     ................
   150a8:	00000001 00000001 00000000 00000000     ................
   150b8:	00000000 00000001 00000001 00000001     ................
	...
   150d4:	00000001 00000001 00000001 00000000     ................
	...
   150ec:	00000001 00000001 00000001 00000000     ................
	...
   15104:	00000001 00000001 00000001 00000001     ................
	...
   15124:	00000001 00000001 00000001 00000000     ................
	...
   1513c:	00000001 00000001 00000001 00000000     ................
	...
   15160:	00000001 00000001 00000001 00000000     ................
	...
   15178:	00000001 00000001 00000000 00000000     ................
   15188:	00000000 00000001 00000000 00000000     ................
   15198:	00000000 00000001 00000001 00000000     ................
	...
   151bc:	00000001 00000001 00000001 00000000     ................
   151cc:	00000000 00000001 00000000 00000001     ................
   151dc:	00000000 00000001 00000000 00000000     ................
	...
   151f4:	00000001 00000000 00000001 00000000     ................
	...
   1520c:	00000001 00000001 00000000 00000000     ................
   1521c:	00000000 00000001 00000001 00000000     ................
	...
   15244:	00000001 00000001 00000001 00000000     ................
	...
   1526c:	00000001 00000000 00000001 00000000     ................
	...
   15284:	00000001 00000000 00000001 00000000     ................
   15294:	00000001 00000000 00000001 00000000     ................
	...
   152b0:	00000001 00000000 00000000 00000000     ................
   152c0:	00000001 00000000 00000000 00000000     ................
	...
   152e0:	00000001 00000001 00000001 00000000     ................
   152f0:	00000001 00000000 00000001 00000000     ................
	...
   15314:	00000001 00000000 00000000 00000000     ................
   15324:	00000000 00000001 00000001 00000000     ................
	...
   15348:	00000001 00000001 00000001 00000000     ................
   15358:	00000000 00000001 00000000 00000000     ................
	...
   1537c:	00000001 00000001 00000000 00000000     ................
	...
   15398:	00000001 00000000 00000001 00000000     ................
	...
   153b0:	00000001 00000000 00000000 00000000     ................
   153c0:	00000001 00000001 00000000 00000000     ................
   153d0:	00000000 00000001 00000000 00000000     ................
	...
   153ec:	00000001 00000000 00000001 00000000     ................
	...
   15404:	00000001 00000000 00000000 00000000     ................
   15414:	00000000 00000001 00000001 00000000     ................
	...
   1542c:	00000001 00000001 00000000 00000000     ................
   1543c:	00000000 00000001 00000000 00000000     ................
	...
   1546c:	00000001 00000001 00000000 00000000     ................
	...
   15488:	00000001 00000001 00000001 00000000     ................
	...
   154a0:	00000001 00000000 00000000 00000000     ................
   154b0:	00000000 00000001 00000001 00000000     ................
	...
   154d0:	00000001 00000001 00000001 00000000     ................
	...
   154e8:	00000001 00000000 00000000 00000000     ................
   154f8:	00000000 00000001 00000001 00000000     ................
	...
   15510:	00000001 00000001 00000000 00000000     ................
   15520:	00000000 00000001 00000000 00000000     ................
	...
   15544:	00000001 00000001 00000001 00000000     ................
	...
   1555c:	00000001 00000001 00000000 00000000     ................
	...
   15578:	00000001 00000001 00000001 00000000     ................
	...
   15590:	00000001 00000000 00000001 00000000     ................
   155a0:	00000001 00000000 00000001 00000000     ................
   155b0:	00000001 00000000 00000000 00000000     ................
   155c0:	00000001 00000001 00000000 00000000     ................
   155d0:	00000000 00000001 00000000 00000000     ................
   155e0:	00000000 00000001 00000001 00000000     ................
	...
   155f8:	00000001 00000001 00000000 00000000     ................
   15608:	00000000 00000001 00000001 00000001     ................
	...
   15628:	00000001 00000000 00000001 00000000     ................
   15638:	00000001 00000000 00000001 00000000     ................
   15648:	00000001 00000000 00000001 00000000     ................
   15658:	00000001 00000000 00000001 00000000     ................
   15668:	00000001 00000000 00000001 00000000     ................
   15678:	00000001 00000000 00000001 00000000     ................
	...
   15690:	00000001 00000001 00000000 00000000     ................
   156a0:	00000000 00000001 00000001 00000001     ................
	...
   156bc:	00000001 00000001 00000000 00000000     ................
   156cc:	00000000 00000001 00000001 00000001     ................
	...
   156e8:	00000001 00000000 00000001 00000000     ................
   156f8:	00000001 00000000 00000001 00000000     ................
   15708:	00000001 00000000 00000001 00000001     ................
   15718:	00000001 00000000 00000000 00000000     ................
   15728:	00000001 00000001 00000001 00000000     ................
	...
   15740:	00000001 00000001 00000001 00000000     ................
   15750:	00000001 00000000 00000001 00000000     ................
   15760:	00000001 00000001 00000001 00000000     ................
   15770:	00000000 00000001 00000001 00000001     ................
   15780:	00000000 00000001 00000000 00000001     ................
   15790:	00000000 00000001 00000001 00000001     ................
	...
   157ac:	00000001 00000001 00000001 00000000     ................
   157bc:	00000001 00000001 00000001 00000000     ................
	...
   157d4:	00000001 00000001 00000001 00000001     ................
   157e4:	00000001 00000000 00000001 00000000     ................
   157f4:	00000001 00000000 00000001 00000000     ................
   15804:	00000001 00000000 00000001 00000001     ................
   15814:	00000001 00000001 00000001 00000001     ................
   15824:	00000000 00000001 00000001 00000001     ................
	...
   1583c:	00000001 00000001 00000001 00000000     ................
   1584c:	00000001 00000000 00000000 00000001     ................
   1585c:	00000001 00000001 00000001 00000001     ................
   1586c:	00000001 00000000 00000000 00000000     ................
   1587c:	00000001 00000001 00000001 00000001     ................
   1588c:	00000001 00000000 00000001 00000000     ................
   1589c:	00000001 00000001 00000001 00000001     ................
   158ac:	00000001 00000001 00000000 00000000     ................
   158bc:	00000000 00000001 00000001 00000001     ................
   158cc:	00000000 00000001 00000001 00000001     ................
   158dc:	00000001 00000001 00000001 00000001     ................
	...
   158f4:	00000001 00000001 00000001 00000001     ................
   15904:	00000001 00000001 00000001 00000000     ................
	...
   1591c:	00000001 00000000 00000001 00000000     ................
   1592c:	00000001 00000001 00000001 00000001     ................
   1593c:	00000001 00000001 00000000 00000001     ................
   1594c:	00000001 00000001 00000001 00000001     ................
   1595c:	00000001 00000001 00000000 00000000     ................
   1596c:	00000001 00000001 00000001 00000001     ................
	...
   15988:	00000001 00000001 00000001 00000001     ................
   15998:	00000001 00000001 00000001 00000000     ................
   159a8:	00000001 00000000 00000001 00000001     ................
   159b8:	00000001 00000000 00000001 00000001     ................
   159c8:	00000001 00000001 00000001 00000001     ................
   159d8:	00000001 00000000 00000000 00000001     ................
   159e8:	00000001 00000001 00000001 00000000     ................
	...
   15a00:	00000001 00000001 00000001 00000001     ................
   15a10:	00000000 00000001 00000000 00000001     ................
   15a20:	00000001 00000001 00000001 00000001     ................
   15a30:	00000001 00000000 00000001 00000001     ................
   15a40:	00000001 00000001 00000000 00000001     ................
   15a50:	00000001 00000001 00000000 00000000     ................
   15a60:	00000001 00000001 00000001 00000000     ................
   15a70:	00000000 00000001 00000001 00000001     ................
   15a80:	00000001 00000001 00000001 00000001     ................
   15a90:	00000001 00000000 00000001 00000000     ................
   15aa0:	00000001 00000001 00000001 00000000     ................
	...
   15ab8:	00000001 00000001 00000001 00000001     ................
   15ac8:	00000001 00000001 00000000 00000001     ................
   15ad8:	00000001 00000001 00000001 00000000     ................
   15ae8:	00000000 00000001 00000001 00000001     ................
	...
   15b00:	00000001 00000001 00000001 00000000     ................
   15b10:	00000001 00000001 00000001 00000001     ................
	...
   15b28:	00000001 00000001 00000001 00000000     ................
   15b38:	00000000 00000001 00000001 00000001     ................
   15b48:	00000000 00000001 00000001 00000001     ................
   15b58:	00000001 00000000 00000000 00000000     ................
   15b68:	00000001 00000001 00000001 00000000     ................
   15b78:	00000001 00000001 00000001 00000000     ................
   15b88:	00000000 00000001 00000001 00000001     ................
	...
   15ba0:	00000001 00000001 00000001 00000001     ................
   15bb0:	00000001 00000000 00000000 00000000     ................
   15bc0:	00000001 00000001 00000001 00000000     ................
   15bd0:	00000001 00000000 00000001 00000000     ................
   15be0:	00000001 00000000 00000001 00000000     ................
   15bf0:	00000001 00000001 00000001 00000000     ................
	...
   15c08:	00000001 00000001 00000001 00000000     ................
	...
   15c20:	00000001 00000001 00000001 00000000     ................
   15c30:	00000001 00000001 00000001 00000000     ................
	...
   15c48:	00000001 00000000 00000001 00000000     ................
   15c58:	00000001 00000000 00000001 00000001     ................
   15c68:	00000001 00000000 00000000 00000000     ................
   15c78:	00000001 00000001 00000001 00000000     ................
	...
   15c90:	00000001 00000001 00000001 00000000     ................
   15ca0:	00000001 00000000 00000001 00000000     ................
   15cb0:	00000001 00000000 00000001 00000000     ................
   15cc0:	00000001 00000000 00000001 00000000     ................
   15cd0:	00000001 00000000 00000001 00000000     ................
   15ce0:	00000001 00000000 00000001 00000001     ................
   15cf0:	00000001 00000001 00000000 00000000     ................
   15d00:	00000000 00000001 00000001 00000000     ................
	...
   15d18:	00000001 00000001 00000000 00000000     ................
   15d28:	00000000 00000001 00000001 00000001     ................
	...
   15d44:	00000001 00000001 00000001 00000000     ................
	...
   15d68:	00000001 00000001 00000001 00000000     ................
	...
   15d88:	00000001 00000001 00000001 00000000     ................
	...
   15da0:	00000001 00000000 00000001 00000000     ................
	...
   15db8:	00000001 00000001 00000000 00000000     ................
   15dc8:	00000000 00000001 00000001 00000000     ................
	...
   15de0:	00000001 00000001 00000001 00000000     ................
	...
   15e08:	00000001 00000001 00000001 00000000     ................
	...
   15e24:	00000001 00000000 00000000 00000000     ................
   15e34:	00000000 00000001 00000001 00000000     ................
	...
   15e4c:	00000001 00000001 00000000 00000000     ................
   15e5c:	00000000 00000001 00000000 00000000     ................
	...
   15e78:	00000001 00000000 00000001 00000000     ................
	...
   15e94:	00000001 00000001 00000001 00000000     ................
	...
   15eb4:	00000001 00000000 00000000 00000000     ................
   15ec4:	00000000 00000001 00000000 00000000     ................
   15ed4:	00000000 00000001 00000000 00000000     ................
   15ee4:	00000000 00000001 00000001 00000001     ................
	...
   15f08:	00000001 00000000 00000001 00000000     ................
	...
   15f20:	00000001 00000000 00000000 00000000     ................
   15f30:	00000000 00000001 00000001 00000000     ................
	...
   15f48:	00000001 00000001 00000000 00000000     ................
   15f58:	00000000 00000001 00000000 00000000     ................
	...
   15f8c:	00000001 00000000 00000001 00000000     ................
	...
   15fa4:	00000001 00000000 00000001 00000000     ................
	...
   15fbc:	00000001 00000001 00000000 00000000     ................
   15fcc:	00000000 00000001 00000001 00000000     ................
	...
   15ff8:	00000001 00000000 00000001 00000000     ................
	...
   1601c:	00000001 00000000 00000001 00000000     ................
   1602c:	00000001 00000000 00000001 00000000     ................
	...
   16048:	00000001 00000000 00000000 00000000     ................
   16058:	00000001 00000000 00000000 00000000     ................
	...
   16078:	00000001 00000001 00000000 00000000     ................
   16088:	00000000 00000001 00000001 00000001     ................
	...
   160b8:	00000001 00000000 00000001 00000000     ................
	...
   160d0:	00000001 00000001 00000001 00000000     ................
	...
   160f4:	00000001 00000000 00000000 00000000     ................
   16104:	00000000 00000001 00000001 00000001     ................
	...
   16120:	00000001 00000001 00000000 00000000     ................
	...
   16144:	00000001 00000001 00000001 00000000     ................
	...
   1615c:	00000001 00000000 00000000 00000000     ................
   1616c:	00000001 00000000 00000000 00000000     ................
   1617c:	00000001 00000001 00000001 00000000     ................
	...
   16198:	00000001 00000001 00000001 00000000     ................
	...
   161b0:	00000001 00000000 00000000 00000000     ................
   161c0:	00000001 00000001 00000000 00000000     ................
   161d0:	00000000 00000001 00000001 00000000     ................
	...
   161e8:	00000001 00000000 00000000 00000000     ................
   161f8:	00000001 00000001 00000000 00000000     ................
   16208:	00000000 00000001 00000001 00000001     ................
	...
   16224:	00000001 00000001 00000001 00000000     ................
	...
   16244:	00000001 00000001 00000001 00000000     ................
	...
   1625c:	00000001 00000001 00000001 00000000     ................
	...
   16274:	00000001 00000001 00000001 00000000     ................
	...
   1628c:	00000001 00000001 00000000 00000000     ................
   1629c:	00000000 00000001 00000000 00000001     ................
   162ac:	00000000 00000001 00000000 00000001     ................
   162bc:	00000001 00000001 00000000 00000000     ................
   162cc:	00000000 00000001 00000000 00000001     ................
   162dc:	00000000 00000001 00000000 00000000     ................
   162ec:	00000000 00000001 00000001 00000001     ................
	...
   16308:	00000001 00000001 00000001 00000001     ................
   16318:	00000001 00000001 00000000 00000000     ................
   16328:	00000000 00000001 00000001 00000000     ................
	...
   16340:	00000001 00000001 00000001 00000000     ................
   16350:	00000001 00000000 00000001 00000000     ................
   16360:	00000001 00000000 00000001 00000000     ................
   16370:	00000001 00000001 00000001 00000000     ................
	...
   16388:	00000001 00000001 00000001 00000001     ................
   16398:	00000001 00000001 00000000 00000000     ................
   163a8:	00000000 00000001 00000001 00000001     ................
   163b8:	00000000 00000001 00000000 00000001     ................
   163c8:	00000001 00000001 00000001 00000000     ................
   163d8:	00000001 00000000 00000001 00000000     ................
   163e8:	00000001 00000001 00000001 00000000     ................
	...
   16400:	00000001 00000001 00000001 00000000     ................
   16410:	00000001 00000001 00000001 00000001     ................
   16420:	00000001 00000000 00000001 00000000     ................
   16430:	00000001 00000000 00000001 00000000     ................
   16440:	00000001 00000000 00000001 00000001     ................
   16450:	00000001 00000000 00000001 00000001     ................
   16460:	00000001 00000001 00000000 00000000     ................
   16470:	00000000 00000001 00000001 00000001     ................
   16480:	00000001 00000001 00000001 00000000     ................
   16490:	00000000 00000001 00000001 00000001     ................
   164a0:	00000001 00000001 00000000 00000001     ................
   164b0:	00000000 00000001 00000000 00000001     ................
   164c0:	00000001 00000001 00000001 00000000     ................
   164d0:	00000001 00000001 00000001 00000001     ................
	...
   164e8:	00000001 00000001 00000001 00000001     ................
   164f8:	00000001 00000000 00000001 00000000     ................
   16508:	00000001 00000001 00000001 00000001     ................
	...
   16524:	00000001 00000001 00000001 00000001     ................
   16534:	00000001 00000001 00000001 00000001     ................
   16544:	00000000 00000001 00000001 00000001     ................
   16554:	00000001 00000000 00000001 00000001     ................
   16564:	00000001 00000000 00000001 00000001     ................
   16574:	00000001 00000001 00000000 00000000     ................
   16584:	00000000 00000001 00000001 00000001     ................
	...
   1659c:	00000001 00000001 00000001 00000001     ................
   165ac:	00000001 00000001 00000001 00000001     ................
   165bc:	00000001 00000001 00000001 00000001     ................
   165cc:	00000001 00000001 00000000 00000001     ................
   165dc:	00000000 00000001 00000001 00000001     ................
   165ec:	00000000 00000001 00000000 00000001     ................
   165fc:	00000000 00000001 00000000 00000001     ................
   1660c:	00000001 00000001 00000001 00000000     ................
   1661c:	00000000 00000001 00000001 00000001     ................
   1662c:	00000001 00000001 00000001 00000001     ................
   1663c:	00000001 00000000 00000001 00000000     ................
   1664c:	00000001 00000001 00000001 00000000     ................
	...
   16664:	00000001 00000001 00000001 00000001     ................
   16674:	00000001 00000001 00000000 00000001     ................
   16684:	00000001 00000001 00000001 00000001     ................
   16694:	00000001 00000001 00000000 00000000     ................
   166a4:	00000001 00000001 00000001 00000000     ................
	...
   166bc:	00000001 00000001 00000001 00000001     ................
   166cc:	00000001 00000001 00000001 00000001     ................
   166dc:	00000000 00000001 00000000 00000001     ................
   166ec:	00000001 00000001 00000000 00000000     ................
   166fc:	00000000 00000001 00000001 00000001     ................
   1670c:	00000001 00000001 00000001 00000000     ................
   1671c:	00000001 00000000 00000001 00000001     ................
   1672c:	00000001 00000001 00000000 00000000     ................
   1673c:	00000000 00000001 00000001 00000001     ................
   1674c:	00000001 00000001 00000000 00000001     ................
   1675c:	00000000 00000001 00000000 00000001     ................
   1676c:	00000001 00000001 00000000 00000000     ................
   1677c:	00000001 00000001 00000001 00000000     ................
   1678c:	00000001 00000000 00000001 00000000     ................
   1679c:	00000001 00000001 00000001 00000001     ................
   167ac:	00000001 00000001 00000000 00000000     ................
   167bc:	00000000 00000001 00000001 00000001     ................
   167cc:	00000000 00000001 00000000 00000001     ................
   167dc:	00000000 00000001 00000000 00000001     ................
   167ec:	00000000 00000001 00000001 00000001     ................
	...
   16808:	00000001 00000001 00000001 00000000     ................
	...
   16820:	00000001 00000001 00000001 00000000     ................
   16830:	00000001 00000001 00000001 00000000     ................
   16840:	00000000 00000001 00000001 00000001     ................
	...
   16860:	00000001 00000001 00000001 00000000     ................
	...
   16878:	00000001 00000001 00000001 00000000     ................
	...
   16890:	00000001 00000001 00000001 00000000     ................
   168a0:	00000001 00000000 00000001 00000000     ................
   168b0:	00000001 00000000 00000001 00000000     ................
   168c0:	00000001 00000000 00000001 00000000     ................
   168d0:	00000001 00000000 00000001 00000001     ................
   168e0:	00000001 00000000 00000000 00000001     ................
   168f0:	00000001 00000001 00000000 00000000     ................
	...
   16908:	00000001 00000001 00000001 00000000     ................
	...
   1692c:	00000001 00000001 00000001 00000000     ................
   1693c:	00000000 00000001 00000001 00000001     ................
	...
   16958:	00000001 00000000 00000000 00000000     ................
   16968:	00000001 00000001 00000000 00000000     ................
   16978:	00000000 00000001 00000000 00000001     ................
   16988:	00000000 00000001 00000000 00000001     ................
	...
   169a8:	00000001 00000001 00000000 00000000     ................
   169b8:	00000000 00000001 00000001 00000000     ................
	...
   169d0:	00000001 00000000 00000000 00000000     ................
   169e0:	00000001 00000001 00000001 00000000     ................
	...
   16a00:	00000001 00000000 00000001 00000000     ................
   16a10:	00000001 00000000 00000001 00000000     ................
	...
   16a2c:	00000001 00000001 00000000 00000000     ................
	...
   16a4c:	00000001 00000001 00000001 00000000     ................
	...
   16a6c:	00000001 00000000 00000001 00000000     ................
	...
   16a90:	00000001 00000001 00000001 00000000     ................
	...
   16aa8:	00000001 00000000 00000000 00000000     ................
   16ab8:	00000000 00000001 00000001 00000000     ................
	...
   16ae0:	00000001 00000001 00000001 00000000     ................
	...
   16af8:	00000001 00000001 00000000 00000000     ................
	...
   16b28:	00000001 00000001 00000000 00000000     ................
	...
   16b44:	00000001 00000001 00000001 00000000     ................
	...
   16b5c:	00000001 00000000 00000000 00000000     ................
	...
   16b7c:	00000001 00000001 00000000 00000000     ................
	...
   16ba4:	00000001 00000000 00000001 00000000     ................
	...
   16bbc:	00000001 00000001 00000001 00000001     ................
	...
   16bec:	00000001 00000000 00000001 00000000     ................
	...
   16c04:	00000001 00000000 00000000 00000000     ................
   16c14:	00000000 00000001 00000001 00000000     ................
	...
   16c2c:	00000001 00000001 00000000 00000000     ................
   16c3c:	00000000 00000001 00000000 00000000     ................
	...
   16c64:	00000001 00000000 00000001 00000000     ................
	...
   16c7c:	00000001 00000000 00000001 00000000     ................
   16c8c:	00000001 00000000 00000000 00000000     ................
   16c9c:	00000000 00000001 00000000 00000001     ................
	...
   16cb8:	00000001 00000000 00000000 00000000     ................
   16cc8:	00000000 00000001 00000000 00000001     ................
   16cd8:	00000000 00000001 00000000 00000000     ................
	...
   16cf0:	00000001 00000000 00000000 00000000     ................
   16d00:	00000001 00000000 00000000 00000000     ................
   16d10:	00000001 00000001 00000001 00000000     ................
	...
   16d38:	00000001 00000001 00000000 00000000     ................
   16d48:	00000000 00000001 00000001 00000001     ................
	...
   16d74:	00000001 00000001 00000001 00000000     ................
	...
   16d8c:	00000001 00000001 00000000 00000000     ................
   16d9c:	00000000 00000001 00000001 00000001     ................
	...
   16dc0:	00000001 00000001 00000001 00000000     ................
	...
   16dd8:	00000001 00000000 00000000 00000000     ................
   16de8:	00000001 00000001 00000001 00000000     ................
	...
   16e04:	00000001 00000001 00000001 00000000     ................
	...
   16e1c:	00000001 00000001 00000001 00000000     ................
	...
   16e40:	00000001 00000001 00000001 00000000     ................
	...
   16e58:	00000001 00000001 00000001 00000000     ................
	...
   16e70:	00000001 00000001 00000001 00000000     ................
	...
   16e88:	00000001 00000001 00000001 00000000     ................
	...
   16ea8:	00000001 00000001 00000001 00000000     ................
	...
   16ec0:	00000001 00000001 00000001 00000000     ................
	...
   16ed8:	00000001 00000000 00000000 00000000     ................
   16ee8:	00000001 00000001 00000001 00000000     ................
   16ef8:	00000001 00000000 00000001 00000000     ................
   16f08:	00000001 00000000 00000001 00000001     ................
   16f18:	00000001 00000000 00000000 00000001     ................
   16f28:	00000001 00000001 00000000 00000000     ................
   16f38:	00000000 00000001 00000001 00000001     ................
	...
   16f50:	00000001 00000001 00000001 00000000     ................
	...
   16f68:	00000001 00000001 00000001 00000001     ................
	...
   16f84:	00000001 00000001 00000001 00000000     ................
   16f94:	00000000 00000001 00000001 00000001     ................
   16fa4:	00000000 00000001 00000001 00000001     ................
	...
   16fbc:	00000001 00000001 00000001 00000001     ................
   16fcc:	00000001 00000000 00000000 00000000     ................
   16fdc:	00000001 00000001 00000001 00000000     ................
   16fec:	00000001 00000000 00000001 00000000     ................
   16ffc:	00000001 00000000 00000001 00000000     ................
   1700c:	00000001 00000001 00000001 00000000     ................
   1701c:	00000001 00000001 00000001 00000001     ................
   1702c:	00000001 00000001 00000000 00000000     ................
   1703c:	00000000 00000001 00000001 00000001     ................
   1704c:	00000001 00000001 00000000 00000001     ................
   1705c:	00000000 00000001 00000001 00000001     ................
	...
   17078:	00000001 00000001 00000001 00000000     ................
   17088:	00000001 00000001 00000001 00000001     ................
   17098:	00000001 00000001 00000001 00000000     ................
   170a8:	00000000 00000001 00000001 00000001     ................
	...
   170c4:	00000001 00000001 00000001 00000001     ................
   170d4:	00000001 00000001 00000001 00000001     ................
   170e4:	00000000 00000001 00000001 00000001     ................
   170f4:	00000001 00000000 00000000 00000001     ................
   17104:	00000001 00000001 00000001 00000000     ................
   17114:	00000001 00000000 00000001 00000000     ................
   17124:	00000001 00000001 00000001 00000001     ................
   17134:	00000001 00000000 00000001 00000000     ................
   17144:	00000001 00000001 00000001 00000001     ................
   17154:	00000001 00000001 00000000 00000001     ................
   17164:	00000001 00000001 00000001 00000000     ................
   17174:	00000000 00000001 00000001 00000001     ................
	...
   1718c:	00000001 00000001 00000001 00000000     ................
   1719c:	00000001 00000001 00000001 00000001     ................
   171ac:	00000001 00000001 00000001 00000001     ................
   171bc:	00000000 00000001 00000000 00000001     ................
   171cc:	00000001 00000001 00000000 00000001     ................
   171dc:	00000001 00000001 00000001 00000000     ................
   171ec:	00000001 00000001 00000001 00000000     ................
	...
   17204:	00000001 00000001 00000001 00000000     ................
   17214:	00000001 00000001 00000001 00000001     ................
   17224:	00000001 00000001 00000001 00000001     ................
   17234:	00000000 00000001 00000000 00000001     ................
   17244:	00000001 00000001 00000000 00000001     ................
   17254:	00000001 00000001 00000000 00000000     ................
   17264:	00000000 00000001 00000001 00000001     ................
   17274:	00000001 00000001 00000001 00000001     ................
   17284:	00000001 00000000 00000001 00000000     ................
   17294:	00000001 00000001 00000001 00000000     ................
   172a4:	00000001 00000001 00000001 00000000     ................
	...
   172bc:	00000001 00000001 00000001 00000001     ................
   172cc:	00000001 00000000 00000001 00000000     ................
   172dc:	00000001 00000001 00000001 00000000     ................
   172ec:	00000001 00000001 00000001 00000000     ................
   172fc:	00000000 00000001 00000001 00000001     ................
   1730c:	00000000 00000001 00000001 00000001     ................
   1731c:	00000001 00000000 00000000 00000001     ................
   1732c:	00000001 00000001 00000000 00000000     ................
   1733c:	00000000 00000001 00000001 00000001     ................
   1734c:	00000001 00000001 00000000 00000001     ................
   1735c:	00000000 00000001 00000000 00000001     ................
   1736c:	00000000 00000001 00000000 00000001     ................
   1737c:	00000001 00000001 00000001 00000001     ................
   1738c:	00000001 00000000 00000000 00000000     ................
   1739c:	00000001 00000001 00000001 00000000     ................
   173ac:	00000001 00000000 00000001 00000000     ................
   173bc:	00000001 00000000 00000001 00000000     ................
   173cc:	00000001 00000001 00000001 00000000     ................
	...
   173e4:	00000001 00000001 00000001 00000000     ................
   173f4:	00000001 00000001 00000001 00000000     ................
	...
   1740c:	00000001 00000001 00000001 00000000     ................
	...
   17424:	00000001 00000001 00000001 00000001     ................
	...
   17440:	00000001 00000001 00000001 00000000     ................
	...
   17458:	00000001 00000001 00000001 00000000     ................
	...
   17470:	00000001 00000001 00000001 00000001     ................
   17480:	00000001 00000001 00000000 00000000     ................
   17490:	00000000 00000001 00000001 00000001     ................
	...
   174b0:	00000001 00000001 00000001 00000000     ................
	...
   174c8:	00000001 00000000 00000001 00000000     ................
   174d8:	00000001 00000000 00000000 00000000     ................
   174e8:	00000001 00000001 00000001 00000000     ................
	...
   17500:	00000001 00000001 00000001 00000000     ................
	...
   17518:	00000001 00000001 00000000 00000000     ................
   17528:	00000000 00000001 00000001 00000001     ................
	...
   17544:	00000001 00000001 00000000 00000000     ................
   17554:	00000000 00000001 00000000 00000000     ................
   17564:	00000000 00000001 00000001 00000001     ................
	...
   1758c:	00000001 00000001 00000001 00000000     ................
   1759c:	00000000 00000001 00000000 00000001     ................
   175ac:	00000000 00000001 00000000 00000000     ................
	...
   175c4:	00000001 00000000 00000001 00000000     ................
	...
   175dc:	00000001 00000001 00000000 00000000     ................
   175ec:	00000000 00000001 00000000 00000000     ................
   175fc:	00000000 00000001 00000000 00000000     ................
   1760c:	00000000 00000001 00000001 00000001     ................
	...
   17630:	00000001 00000000 00000001 00000000     ................
	...
   17648:	00000001 00000001 00000001 00000000     ................
	...
   1766c:	00000001 00000000 00000000 00000000     ................
   1767c:	00000000 00000001 00000001 00000000     ................
	...
   17694:	00000001 00000001 00000001 00000000     ................
	...
   176bc:	00000001 00000001 00000000 00000000     ................
	...
   176d8:	00000001 00000001 00000001 00000000     ................
	...
   176f0:	00000001 00000000 00000000 00000000     ................
	...
   17710:	00000001 00000001 00000000 00000000     ................
	...
   17734:	00000001 00000001 00000000 00000000     ................
   17744:	00000000 00000001 00000001 00000001     ................
	...
   17774:	00000001 00000000 00000000 00000000     ................
   17784:	00000000 00000001 00000001 00000000     ................
	...
   177ac:	00000001 00000001 00000001 00000000     ................
   177bc:	00000001 00000000 00000001 00000000     ................
	...
   177ec:	00000001 00000000 00000000 00000000     ................
   177fc:	00000000 00000001 00000000 00000000     ................
   1780c:	00000000 00000001 00000000 00000000     ................
	...
   17824:	00000001 00000001 00000001 00000000     ................
	...
   1783c:	00000001 00000001 00000000 00000000     ................
	...
   1786c:	00000001 00000001 00000000 00000000     ................
   1787c:	00000000 00000001 00000000 00000001     ................
   1788c:	00000000 00000001 00000000 00000000     ................
   1789c:	00000000 00000001 00000000 00000000     ................
	...
   178c0:	00000001 00000001 00000000 00000000     ................
   178d0:	00000000 00000001 00000001 00000001     ................
	...
   178fc:	00000001 00000001 00000000 00000000     ................
   1790c:	00000000 00000001 00000001 00000001     ................
	...
   1793c:	00000001 00000001 00000001 00000000     ................
	...
   17954:	00000001 00000000 00000000 00000000     ................
   17964:	00000000 00000001 00000001 00000001     ................
	...
   17980:	00000001 00000001 00000000 00000000     ................
	...
   179a0:	00000001 00000001 00000001 00000000     ................
	...
   179c4:	00000001 00000001 00000001 00000000     ................
   179d4:	00000000 00000001 00000000 00000001     ................
   179e4:	00000000 00000001 00000000 00000001     ................
   179f4:	00000000 00000001 00000000 00000000     ................
	...
   17a0c:	00000001 00000001 00000001 00000000     ................
	...
   17a24:	00000001 00000000 00000001 00000000     ................
   17a34:	00000001 00000000 00000000 00000000     ................
   17a44:	00000001 00000001 00000001 00000000     ................
	...
   17a5c:	00000001 00000001 00000001 00000000     ................
	...
   17a74:	00000001 00000001 00000001 00000000     ................
	...
   17a8c:	00000001 00000001 00000001 00000000     ................
	...
   17aa8:	00000001 00000000 00000001 00000000     ................
   17ab8:	00000001 00000000 00000001 00000000     ................
   17ac8:	00000001 00000000 00000001 00000000     ................
   17ad8:	00000001 00000000 00000001 00000000     ................
   17ae8:	00000001 00000000 00000001 00000000     ................
   17af8:	00000001 00000000 00000001 00000000     ................
   17b08:	00000001 00000000 00000001 00000001     ................
   17b18:	00000001 00000000 00000000 00000000     ................
   17b28:	00000001 00000001 00000001 00000001     ................
	...
   17b44:	00000001 00000001 00000001 00000001     ................
   17b54:	00000001 00000001 00000000 00000000     ................
   17b64:	00000000 00000001 00000001 00000001     ................
   17b74:	00000001 00000001 00000000 00000000     ................
   17b84:	00000000 00000001 00000001 00000001     ................
   17b94:	00000000 00000001 00000000 00000001     ................
   17ba4:	00000000 00000001 00000000 00000001     ................
   17bb4:	00000000 00000001 00000001 00000001     ................
   17bc4:	00000000 00000001 00000001 00000001     ................
	...
   17be0:	00000001 00000001 00000001 00000001     ................
   17bf0:	00000000 00000001 00000001 00000001     ................
	...
   17c08:	00000001 00000001 00000001 00000000     ................
   17c18:	00000000 00000001 00000001 00000001     ................
   17c28:	00000001 00000000 00000000 00000000     ................
   17c38:	00000001 00000001 00000001 00000001     ................
   17c48:	00000001 00000001 00000000 00000000     ................
   17c58:	00000001 00000001 00000001 00000001     ................
   17c68:	00000001 00000000 00000000 00000000     ................
   17c78:	00000001 00000001 00000001 00000000     ................
   17c88:	00000001 00000001 00000001 00000001     ................
   17c98:	00000001 00000001 00000001 00000000     ................
   17ca8:	00000000 00000001 00000001 00000001     ................
   17cb8:	00000001 00000000 00000000 00000000     ................
   17cc8:	00000001 00000001 00000001 00000001     ................
   17cd8:	00000001 00000001 00000000 00000000     ................
   17ce8:	00000001 00000001 00000001 00000001     ................
   17cf8:	00000001 00000001 00000001 00000001     ................
   17d08:	00000000 00000001 00000000 00000001     ................
   17d18:	00000000 00000001 00000000 00000001     ................
   17d28:	00000000 00000001 00000001 00000001     ................
   17d38:	00000000 00000001 00000001 00000001     ................
   17d48:	00000001 00000001 00000001 00000001     ................
   17d58:	00000001 00000001 00000001 00000000     ................
   17d68:	00000000 00000001 00000001 00000001     ................
   17d78:	00000001 00000001 00000000 00000001     ................
   17d88:	00000000 00000001 00000000 00000001     ................
   17d98:	00000000 00000001 00000000 00000001     ................
   17da8:	00000001 00000001 00000000 00000001     ................
   17db8:	00000001 00000001 00000001 00000001     ................
   17dc8:	00000001 00000001 00000001 00000000     ................
   17dd8:	00000001 00000000 00000001 00000001     ................
   17de8:	00000001 00000000 00000001 00000000     ................
   17df8:	00000001 00000000 00000001 00000000     ................
   17e08:	00000001 00000001 00000001 00000001     ................
   17e18:	00000001 00000001 00000001 00000000     ................
   17e28:	00000000 00000001 00000001 00000001     ................
   17e38:	00000001 00000001 00000000 00000001     ................
   17e48:	00000001 00000001 00000001 00000000     ................
   17e58:	00000001 00000001 00000001 00000000     ................
	...
   17e74:	00000001 00000001 00000001 00000001     ................
   17e84:	00000001 00000001 00000001 00000001     ................
   17e94:	00000000 00000001 00000000 00000001     ................
   17ea4:	00000001 00000001 00000000 00000001     ................
   17eb4:	00000000 00000001 00000000 00000001     ................
   17ec4:	00000000 00000001 00000000 00000001     ................
   17ed4:	00000001 00000001 00000001 00000001     ................
   17ee4:	00000001 00000000 00000001 00000001     ................
   17ef4:	00000001 00000000 00000000 00000000     ................
   17f04:	00000001 00000001 00000001 00000001     ................
   17f14:	00000001 00000000 00000001 00000000     ................
   17f24:	00000001 00000001 00000001 00000000     ................
	...
   17f3c:	00000001 00000001 00000001 00000001     ................
   17f4c:	00000001 00000001 00000000 00000001     ................
   17f5c:	00000000 00000001 00000000 00000001     ................
   17f6c:	00000000 00000001 00000000 00000001     ................
   17f7c:	00000001 00000001 00000001 00000001     ................
   17f8c:	00000001 00000000 00000000 00000000     ................
   17f9c:	00000001 00000001 00000001 00000000     ................
   17fac:	00000001 00000000 00000001 00000000     ................
   17fbc:	00000001 00000000 00000001 00000000     ................
   17fcc:	00000001 00000001 00000001 00000001     ................
   17fdc:	00000000 00000001 00000000 00000001     ................
   17fec:	00000000 00000001 00000001 00000001     ................
	...
   18008:	00000001 00000001 00000001 00000000     ................
	...
   18020:	00000001 00000001 00000001 00000000     ................
   18030:	00000001 00000001 00000001 00000000     ................
   18040:	00000000 00000001 00000001 00000001     ................
	...
   1805c:	00000001 00000001 00000001 00000000     ................
	...
   18074:	00000001 00000001 00000001 00000000     ................
   18084:	00000001 00000001 00000001 00000000     ................
	...
   1809c:	00000001 00000000 00000001 00000000     ................
   180ac:	00000001 00000000 00000001 00000000     ................
   180bc:	00000001 00000000 00000001 00000000     ................
	...
   180d4:	00000001 00000001 00000001 00000000     ................
	...
   180ec:	00000001 00000001 00000001 00000000     ................
	...
   18104:	00000001 00000001 00000001 00000000     ................
	...
   18124:	00000001 00000001 00000001 00000000     ................
	...
   1813c:	00000001 00000001 00000001 00000000     ................
	...
   18158:	00000001 00000000 00000001 00000000     ................
   18168:	00000001 00000000 00000001 00000000     ................
   18178:	00000001 00000000 00000000 00000000     ................
   18188:	00000001 00000001 00000001 00000000     ................
	...
   181ac:	00000001 00000001 00000001 00000000     ................
	...
   181d0:	00000001 00000000 00000001 00000000     ................
   181e0:	00000001 00000000 00000001 00000000     ................
	...
   181fc:	00000001 00000001 00000000 00000000     ................
   1820c:	00000000 00000001 00000001 00000001     ................
	...
   1823c:	00000001 00000000 00000001 00000000     ................
   1824c:	00000001 00000000 00000001 00000000     ................
   1825c:	00000001 00000000 00000000 00000000     ................
   1826c:	00000001 00000000 00000000 00000000     ................
   1827c:	00000000 00000001 00000001 00000001     ................
	...
   182a4:	00000001 00000001 00000000 00000000     ................
	...
   182cc:	00000001 00000000 00000001 00000000     ................
   182dc:	00000001 00000000 00000001 00000000     ................
   182ec:	00000001 00000000 00000000 00000000     ................
	...
   18308:	00000001 00000000 00000000 00000000     ................
	...
   18328:	00000001 00000001 00000000 00000000     ................
	...
   18340:	00000001 00000001 00000001 00000000     ................
	...
   18358:	00000001 00000001 00000000 00000000     ................
	...
   1838c:	00000001 00000000 00000001 00000000     ................
	...
   183a4:	00000001 00000000 00000001 00000000     ................
   183b4:	00000001 00000000 00000000 00000000     ................
   183c4:	00000000 00000001 00000000 00000000     ................
	...
   183dc:	00000001 00000001 00000000 00000000     ................
	...
   18404:	00000001 00000000 00000001 00000000     ................
	...
   1841c:	00000001 00000001 00000001 00000000     ................
	...
   18434:	00000001 00000000 00000000 00000000     ................
	...
   18458:	00000001 00000000 00000001 00000000     ................
	...
   1847c:	00000001 00000001 00000001 00000000     ................
	...
   18494:	00000001 00000000 00000000 00000000     ................
   184a4:	00000000 00000001 00000001 00000000     ................
	...
   184cc:	00000001 00000001 00000001 00000000     ................
	...
   184e4:	00000001 00000001 00000000 00000000     ................
	...
   18508:	00000001 00000001 00000001 00000000     ................
	...
   18524:	00000001 00000000 00000001 00000000     ................
	...
   1853c:	00000001 00000001 00000001 00000000     ................
	...
   18560:	00000001 00000000 00000000 00000000     ................
   18570:	00000001 00000001 00000000 00000000     ................
   18580:	00000000 00000001 00000000 00000000     ................
	...
   18598:	00000001 00000001 00000001 00000000     ................
   185a8:	00000001 00000000 00000001 00000000     ................
	...
   185c0:	00000001 00000001 00000001 00000000     ................
	...
   185d8:	00000001 00000000 00000000 00000000     ................
   185e8:	00000001 00000001 00000000 00000000     ................
   185f8:	00000000 00000001 00000000 00000001     ................
   18608:	00000001 00000001 00000000 00000000     ................
   18618:	00000000 00000001 00000001 00000001     ................
	...
   18634:	00000001 00000001 00000000 00000000     ................
   18644:	00000000 00000001 00000001 00000000     ................
	...
   1865c:	00000001 00000001 00000001 00000000     ................
	...
   18674:	00000001 00000001 00000001 00000000     ................
	...
   18690:	00000001 00000000 00000001 00000000     ................
   186a0:	00000001 00000000 00000001 00000000     ................
   186b0:	00000001 00000000 00000001 00000000     ................
   186c0:	00000001 00000000 00000001 00000000     ................
   186d0:	00000001 00000000 00000001 00000000     ................
   186e0:	00000001 00000000 00000001 00000000     ................
   186f0:	00000001 00000000 00000001 00000000     ................
   18700:	00000001 00000000 00000001 00000000     ................
   18710:	00000001 00000001 00000001 00000000     ................
	...
   18728:	00000001 00000001 00000001 00000000     ................
   18738:	00000000 00000001 00000001 00000001     ................
	...
   18750:	00000001 00000001 00000001 00000000     ................
	...
   18768:	00000001 00000001 00000001 00000001     ................
   18778:	00000001 00000001 00000000 00000000     ................
   18788:	00000000 00000001 00000001 00000000     ................
   18798:	00000001 00000000 00000001 00000000     ................
   187a8:	00000001 00000001 00000001 00000001     ................
   187b8:	00000000 00000001 00000000 00000001     ................
   187c8:	00000001 00000001 00000000 00000000     ................
   187d8:	00000000 00000001 00000001 00000001     ................
   187e8:	00000000 00000001 00000001 00000001     ................
   187f8:	00000001 00000000 00000001 00000000     ................
   18808:	00000001 00000000 00000001 00000000     ................
   18818:	00000001 00000001 00000001 00000000     ................
   18828:	00000001 00000001 00000001 00000000     ................
	...
   18840:	00000001 00000001 00000001 00000001     ................
   18850:	00000001 00000001 00000001 00000000     ................
   18860:	00000000 00000001 00000001 00000001     ................
   18870:	00000000 00000001 00000001 00000001     ................
	...
   18888:	00000001 00000001 00000001 00000001     ................
   18898:	00000001 00000001 00000001 00000001     ................
   188a8:	00000000 00000001 00000000 00000001     ................
   188b8:	00000001 00000001 00000000 00000000     ................
   188c8:	00000000 00000001 00000001 00000001     ................
   188d8:	00000000 00000001 00000001 00000001     ................
   188e8:	00000001 00000001 00000001 00000001     ................
	...
   18900:	00000001 00000001 00000001 00000001     ................
   18910:	00000001 00000001 00000001 00000000     ................
	...
   18928:	00000001 00000001 00000001 00000000     ................
   18938:	00000000 00000001 00000001 00000001     ................
   18948:	00000001 00000001 00000000 00000001     ................
   18958:	00000001 00000001 00000001 00000000     ................
   18968:	00000001 00000001 00000001 00000000     ................
   18978:	00000001 00000001 00000001 00000001     ................
   18988:	00000000 00000001 00000000 00000001     ................
   18998:	00000000 00000001 00000000 00000001     ................
   189a8:	00000001 00000001 00000000 00000001     ................
   189b8:	00000001 00000001 00000001 00000001     ................
   189c8:	00000001 00000001 00000001 00000001     ................
   189d8:	00000001 00000000 00000000 00000001     ................
   189e8:	00000001 00000001 00000001 00000001     ................
	...
   18a04:	00000001 00000001 00000001 00000000     ................
   18a14:	00000001 00000001 00000001 00000001     ................
   18a24:	00000001 00000000 00000001 00000000     ................
   18a34:	00000001 00000001 00000001 00000001     ................
   18a44:	00000001 00000001 00000000 00000001     ................
   18a54:	00000000 00000001 00000001 00000001     ................
	...
   18a70:	00000001 00000001 00000001 00000001     ................
   18a80:	00000001 00000001 00000000 00000001     ................
   18a90:	00000001 00000001 00000001 00000000     ................
   18aa0:	00000001 00000001 00000001 00000000     ................
   18ab0:	00000001 00000001 00000001 00000000     ................
   18ac0:	00000000 00000001 00000001 00000001     ................
   18ad0:	00000000 00000001 00000001 00000001     ................
   18ae0:	00000001 00000000 00000000 00000001     ................
   18af0:	00000001 00000000 00000000 00000000     ................
   18b00:	00000001 00000001 00000001 00000001     ................
   18b10:	00000001 00000001 00000000 00000001     ................
   18b20:	00000001 00000001 00000001 00000000     ................
	...
   18b38:	00000001 00000001 00000001 00000000     ................
   18b48:	00000000 00000001 00000001 00000001     ................
   18b58:	00000001 00000001 00000000 00000000     ................
   18b68:	00000000 00000001 00000001 00000001     ................
   18b78:	00000000 00000001 00000000 00000001     ................
   18b88:	00000001 00000001 00000001 00000000     ................
   18b98:	00000001 00000000 00000001 00000000     ................
   18ba8:	00000001 00000001 00000001 00000000     ................
	...
   18bc0:	00000001 00000001 00000001 00000000     ................
   18bd0:	00000001 00000000 00000001 00000000     ................
   18be0:	00000001 00000000 00000001 00000001     ................
   18bf0:	00000001 00000001 00000000 00000000     ................
   18c00:	00000000 00000001 00000001 00000001     ................
	...
   18c1c:	00000001 00000001 00000001 00000000     ................
   18c2c:	00000000 00000001 00000001 00000001     ................
   18c3c:	00000000 00000001 00000001 00000001     ................
	...
   18c58:	00000001 00000001 00000001 00000000     ................
	...
   18c70:	00000001 00000001 00000001 00000001     ................
   18c80:	00000000 00000001 00000000 00000001     ................
   18c90:	00000000 00000001 00000000 00000001     ................
	...
   18cb0:	00000001 00000001 00000001 00000000     ................
	...
   18cc8:	00000001 00000000 00000001 00000000     ................
   18cd8:	00000001 00000000 00000001 00000000     ................
   18ce8:	00000001 00000000 00000001 00000000     ................
   18cf8:	00000001 00000000 00000001 00000000     ................
   18d08:	00000001 00000000 00000001 00000000     ................
   18d18:	00000001 00000000 00000000 00000000     ................
   18d28:	00000001 00000001 00000001 00000000     ................
	...
   18d40:	00000001 00000001 00000001 00000000     ................
	...
   18d58:	00000001 00000000 00000000 00000000     ................
   18d68:	00000001 00000001 00000001 00000000     ................
	...
   18d84:	00000001 00000001 00000001 00000000     ................
	...
   18d9c:	00000001 00000001 00000000 00000000     ................
   18dac:	00000000 00000001 00000000 00000001     ................
   18dbc:	00000000 00000001 00000000 00000000     ................
   18dcc:	00000000 00000001 00000000 00000000     ................
   18ddc:	00000000 00000001 00000001 00000000     ................
	...
   18df4:	00000001 00000000 00000000 00000000     ................
   18e04:	00000000 00000001 00000001 00000001     ................
	...
   18e20:	00000001 00000001 00000000 00000000     ................
	...
   18e3c:	00000001 00000000 00000001 00000000     ................
   18e4c:	00000001 00000000 00000000 00000000     ................
   18e5c:	00000000 00000001 00000000 00000001     ................
	...
   18e78:	00000001 00000000 00000000 00000000     ................
   18e88:	00000001 00000001 00000001 00000000     ................
	...
   18eb4:	00000001 00000000 00000001 00000000     ................
	...
   18ecc:	00000001 00000000 00000000 00000000     ................
   18edc:	00000001 00000001 00000001 00000000     ................
	...
   18efc:	00000001 00000000 00000001 00000000     ................
	...
   18f14:	00000001 00000000 00000000 00000000     ................
	...
   18f34:	00000001 00000001 00000000 00000000     ................
   18f44:	00000000 00000001 00000001 00000001     ................
	...
   18f68:	00000001 00000000 00000000 00000000     ................
   18f78:	00000000 00000001 00000001 00000000     ................
	...
   18f98:	00000001 00000000 00000001 00000000     ................
	...
   18fb4:	00000001 00000001 00000001 00000000     ................
	...
   18fd4:	00000001 00000000 00000000 00000000     ................
	...
   18ff4:	00000001 00000001 00000000 00000000     ................
	...
   19018:	00000001 00000001 00000000 00000000     ................
   19028:	00000000 00000001 00000001 00000001     ................
	...
   19058:	00000001 00000000 00000001 00000000     ................
	...
   1907c:	00000001 00000001 00000001 00000000     ................
	...
   19094:	00000001 00000000 00000000 00000000     ................
	...
   190ac:	00000001 00000000 00000001 00000000     ................
	...
   190cc:	00000001 00000001 00000001 00000000     ................
	...
   190e8:	00000001 00000000 00000001 00000000     ................
	...
   19100:	00000001 00000000 00000000 00000000     ................
   19110:	00000001 00000001 00000000 00000000     ................
   19120:	00000000 00000001 00000000 00000000     ................
	...
   19138:	00000001 00000001 00000001 00000000     ................
   19148:	00000001 00000000 00000001 00000000     ................
	...
   1916c:	00000001 00000001 00000001 00000000     ................
	...
   19190:	00000001 00000000 00000001 00000000     ................
   191a0:	00000001 00000000 00000000 00000000     ................
   191b0:	00000000 00000001 00000000 00000001     ................
   191c0:	00000000 00000001 00000000 00000001     ................
   191d0:	00000000 00000001 00000000 00000000     ................
   191e0:	00000000 00000001 00000001 00000001     ................
	...
   191fc:	00000001 00000000 00000000 00000000     ................
   1920c:	00000001 00000001 00000001 00000000     ................
	...
   19224:	00000001 00000001 00000001 00000000     ................
	...
   19240:	00000001 00000001 00000001 00000000     ................
	...
   19258:	00000001 00000001 00000001 00000000     ................
	...
   19270:	00000001 00000000 00000001 00000000     ................
   19280:	00000001 00000000 00000001 00000000     ................
   19290:	00000001 00000000 00000001 00000000     ................
	...
   192a8:	00000001 00000001 00000001 00000000     ................
	...
   192c0:	00000001 00000001 00000001 00000000     ................
	...
   192d8:	00000001 00000001 00000000 00000000     ................
   192e8:	00000000 00000001 00000001 00000001     ................
	...
   19304:	00000001 00000001 00000001 00000000     ................
   19314:	00000001 00000000 00000001 00000000     ................
   19324:	00000001 00000000 00000001 00000000     ................
   19334:	00000001 00000000 00000001 00000001     ................
   19344:	00000001 00000001 00000000 00000001     ................
   19354:	00000000 00000001 00000000 00000001     ................
   19364:	00000000 00000001 00000000 00000001     ................
   19374:	00000001 00000001 00000000 00000000     ................
   19384:	00000001 00000001 00000001 00000000     ................
   19394:	00000000 00000001 00000001 00000001     ................
	...
   193b0:	00000001 00000001 00000001 00000001     ................
   193c0:	00000001 00000001 00000001 00000000     ................
	...
   193d8:	00000001 00000001 00000001 00000000     ................
   193e8:	00000000 00000001 00000001 00000001     ................
   193f8:	00000001 00000001 00000000 00000000     ................
   19408:	00000000 00000001 00000001 00000001     ................
   19418:	00000000 00000001 00000000 00000001     ................
   19428:	00000001 00000001 00000000 00000000     ................
   19438:	00000001 00000001 00000001 00000000     ................
   19448:	00000001 00000001 00000001 00000000     ................
   19458:	00000001 00000001 00000001 00000001     ................
	...
   19474:	00000001 00000001 00000001 00000001     ................
   19484:	00000001 00000001 00000001 00000000     ................
   19494:	00000001 00000000 00000001 00000001     ................
   194a4:	00000001 00000000 00000001 00000001     ................
   194b4:	00000001 00000001 00000000 00000000     ................
   194c4:	00000000 00000001 00000001 00000001     ................
	...
   194dc:	00000001 00000001 00000001 00000001     ................
   194ec:	00000001 00000001 00000001 00000001     ................
   194fc:	00000000 00000001 00000000 00000001     ................
   1950c:	00000001 00000001 00000000 00000001     ................
   1951c:	00000000 00000001 00000000 00000001     ................
   1952c:	00000001 00000001 00000001 00000000     ................
   1953c:	00000001 00000000 00000001 00000001     ................
   1954c:	00000001 00000000 00000001 00000001     ................
   1955c:	00000001 00000001 00000001 00000001     ................
   1956c:	00000001 00000000 00000000 00000001     ................
   1957c:	00000001 00000001 00000001 00000001     ................
   1958c:	00000001 00000000 00000000 00000000     ................
   1959c:	00000001 00000001 00000000 00000001     ................
   195ac:	00000001 00000001 00000001 00000000     ................
   195bc:	00000001 00000001 00000001 00000000     ................
   195cc:	00000001 00000001 00000001 00000001     ................
   195dc:	00000001 00000001 00000001 00000000     ................
   195ec:	00000000 00000001 00000001 00000001     ................
   195fc:	00000001 00000000 00000000 00000000     ................
   1960c:	00000001 00000001 00000001 00000001     ................
   1961c:	00000000 00000001 00000000 00000001     ................
   1962c:	00000001 00000001 00000001 00000001     ................
   1963c:	00000001 00000000 00000001 00000001     ................
   1964c:	00000001 00000001 00000000 00000001     ................
   1965c:	00000001 00000001 00000000 00000000     ................
   1966c:	00000000 00000001 00000001 00000001     ................
   1967c:	00000000 00000001 00000001 00000001     ................
   1968c:	00000001 00000001 00000000 00000001     ................
   1969c:	00000000 00000001 00000001 00000001     ................
   196ac:	00000001 00000001 00000001 00000000     ................
	...
   196c4:	00000001 00000001 00000001 00000000     ................
   196d4:	00000001 00000000 00000000 00000001     ................
   196e4:	00000001 00000001 00000001 00000001     ................
   196f4:	00000001 00000000 00000000 00000000     ................
   19704:	00000001 00000001 00000001 00000001     ................
   19714:	00000001 00000001 00000001 00000000     ................
   19724:	00000000 00000001 00000001 00000001     ................
   19734:	00000000 00000001 00000000 00000001     ................
   19744:	00000000 00000001 00000001 00000001     ................
   19754:	00000000 00000001 00000001 00000001     ................
	...
   19770:	00000001 00000001 00000001 00000001     ................
	...
   19788:	00000001 00000001 00000001 00000000     ................
   19798:	00000000 00000001 00000001 00000001     ................
   197a8:	00000000 00000001 00000001 00000001     ................
	...
   197c4:	00000001 00000001 00000001 00000001     ................
   197d4:	00000000 00000001 00000000 00000001     ................
   197e4:	00000000 00000001 00000001 00000001     ................
   197f4:	00000001 00000000 00000000 00000000     ................
   19804:	00000001 00000001 00000001 00000000     ................
	...
   1981c:	00000001 00000001 00000001 00000000     ................
   1982c:	00000000 00000001 00000001 00000001     ................
   1983c:	00000000 00000001 00000001 00000001     ................
	...
   19858:	00000001 00000000 00000001 00000000     ................
   19868:	00000001 00000000 00000001 00000000     ................
   19878:	00000001 00000001 00000001 00000001     ................
	...
   19894:	00000001 00000001 00000000 00000000     ................
   198a4:	00000000                                ....

000198a8 <S_ACC_DOWN_EQUAL_OSR>:
   198a8:	054771c0 00c62aa0 21514038 041c6114     .qG..*..8@Q!.a..
   198b8:	2a1142a2 0c5541c4 151c71e3 23abd55c     .B.*.AU..q..\..#
   198c8:	39eaf755 157ebfce 3b8ebff9 157e3af8     U..9..~....;.:~.
   198d8:	038fc71d 38e238e3 00c62154 14035500     .....8.8T!...U..
   198e8:	14030854 008aa102 0711c1c6 31c638e1     T............8.1
   198f8:	38fc738b 38e7f71d 2bee3f5f 0ffdd57b     .s.8...8_?.+{...
   19908:	3e3c7771 11dc71ea 31c0e387 20380c62     qw<>.q.....1b.8 
   19918:	27030815 046308a0 008c611c 10e3188c     ...'..c..a......
   19928:	1d551c63 2aaf8ee3 39fdc7eb 39fdd7f1     c.U....*...9...9
   19938:	3bf1d7f9 1c7ce771 155c71d5 14707038     ...;q.|..q\.8pp.
   19948:	38504630 20023184 30110aa0 22380c70     0FP8.1. ...0p.8"
   19958:	23838e31 1c63f1c5 157dc757 38f5f3de     1..#..c.W.}....8
   19968:	0f55d7ff 3c75fe39 1d55c7ea 275555c7     ..U.9.u<..U..UU'
   19978:	04630aa3 0611c0a0 22806023 142a2804     ..c.....#`.".(*.
   19988:	06380e30 31c71c0e 0f1ce39d 1d7c7eea     0.8....1.....~|.
   19998:	1fafabcf 1d7fb8ef 073dceeb 38e3b8ea     ..........=....8
   199a8:	31c7151c 04462854 04706038 200ae030     ...1T(F.8`p.0.. 
   199b8:	38c04546 381c0c70 150e38e3 1571f1f8     FE.8p..8.8....q.
   199c8:	3f71f3f1 2be7feea 3877be7f 157e3af8     ..q?...+..w8.:~.
   199d8:	239dc71d 0e3838e3 201c6154 30102aa0     ...#.88.Ta. .*.0
   199e8:	2280610a 3018e030 2311c570 15555543     .a."0..0p..#CUU.
   199f8:	23af563f 23aff3b9 3baaf77b 1defc75f     ?V.#...#{..;_...
   19a08:	17ae3e71 2bc71dce 0711c715 142a0c70     q>.....+....p.*.
   19a18:	071808a0 00e30180 308c450e 38e238aa     .........E.0.8.8
   19a28:	2b8e31c7 23e71fc7 1fe71eeb 0feef63f     .1.+...#....?...
   19a38:	0b8fd7dc 38ee73c7 1c54638e 3018c507     .....s.8.cT....0
   19a48:	008e2102 20118c22 1c507022 20e381c6     .!..".. "pP.... 
   19a58:	1c671c55 1fe39c7b 1deebf8f 31e7fefd     U.g.{..........1
   19a68:	39fdc75f 1563f39d 31c771c7 1c42a870     _..9..c..q.1p.B.
   19a78:	3038611c 14030854 2a81411c 0e11c507     .a80T....A.*....
   19a88:	3155438e 23e38f51 1f1f9eab 39eaf3df     .CU1Q..#.......9
   19a98:	2bee3f5f 3baaf7ce 0e3c7e39 238e38f5     _?.+...;9~<..8.#
   19aa8:	21538188 30110aa2 23114180 0611c180     ..S!...0.A.#....
   19ab8:	1551c18e 23155555 2ae7571c 38fcb9df     ..Q.UU.#.W.*...8
   19ac8:	39fdfa8f 33bdfaf1 3b9cf739 0771c755     ...9...39..;U.q.
   19ad8:	38c63d55 21c0718c 141c4420 140318a2     U=.8.q.! D......
   19ae8:	20714038 06311c38 11d518e3 2b8fc755     8@q 8.1.....U..+
   19af8:	2be7e3dd 39c7bbdf 3f7e3aff 39d5f1eb     ...+...9.:~?...9
   19b08:	070e771c 047381c3 38185507 20c00c70     .w....s..U.8p.. 
   19b18:	18c22807 07110a84 0e1c4707 15c471c1     .(.......G...q..
   19b28:	2b8f9dce 1fe39fdc 1d7fb9cf 38eebfc7     ...+...........8
   19b38:	2b8fd55f 0e3f1c71 381c4638 3081c507     _..+q.?.8F.8...0
   19b48:	201c6030 0018e110 23807180 22a38554     0`. .....q.#T.."
   19b58:	3c755555 39cef1dd 2bfcfc79 1575feea     UUu<...9y..+..u.
   19b68:	3bf5575f 17aab8fd 22aa8ee3 0381c554     _W.;......."T...
   19b78:	060708aa 22800c70 23814023 231038a1     ....p.."#@.#.8.#
   19b88:	238c638e 0739c755 3f1dd57b 39c7f3fb     .c.#U.9.{..?...9
   19b98:	2bee3e7f 3bf19ee7 0e3d571d 1555470a     .>.+...;.W=..GU.
   19ba8:	2311518e 388a01c4 20e14184 02823814     .Q.#...8.A. .8..
   19bb8:	21503815 05551c70 0e7557aa 3e3ddceb     .8P!p.U..Wu...=>
   19bc8:	0feebd5d 1defd78f 1d5cfe3f 3738e3d5     ].......?.\...87
   19bd8:	0018f551                                Q...

00019bdc <S_ACC_DOWN>:
	...
   19be4:	00000007 00000000 00000007 00000006     ................
   19bf4:	00000001 00000002 00000005 00000000     ................
   19c04:	00000006 00000001 00000006 00000001     ................
   19c14:	00000006 00000000 00000005 00000002     ................
   19c24:	00000004 00000003 00000000 00000004     ................
   19c34:	00000002 00000005 00000002 00000004     ................
   19c44:	00000001 00000006 00000000 00000000     ................
   19c54:	00000007 00000000 00000004 00000002     ................
   19c64:	00000004 00000001 00000006 00000000     ................
   19c74:	00000000 00000006 00000000 00000007     ................
	...
   19c8c:	00000004 00000002 00000004 00000002     ................
   19c9c:	00000001 00000004 00000002 00000000     ................
   19cac:	00000004 00000000 00000002 00000004     ................
   19cbc:	00000003 00000004 00000000 00000000     ................
   19ccc:	00000004 00000002 00000004 00000000     ................
   19cdc:	00000006 00000000 00000007 00000000     ................
   19cec:	00000004 00000000 00000002 00000004     ................
   19cfc:	00000000 00000006 00000000 00000003     ................
   19d0c:	00000004 00000000 00000000 00000004     ................
   19d1c:	00000002 00000004 00000002 00000001     ................
   19d2c:	00000004 00000002 00000004 00000000     ................
   19d3c:	00000002 00000005 00000002 00000004     ................
	...
   19d54:	00000007 00000000 00000004 00000002     ................
   19d64:	00000004 00000003 00000004 00000000     ................
   19d74:	00000007 00000000 00000004 00000002     ................
   19d84:	00000005 00000002 00000004 00000001     ................
   19d94:	00000006 00000000 00000007 00000000     ................
   19da4:	00000000 00000007 00000000 00000007     ................
   19db4:	00000000 00000004 00000003 00000004     ................
   19dc4:	00000007 00000000 00000007 00000000     ................
   19dd4:	00000007 00000000 00000005 00000002     ................
   19de4:	00000005 00000002 00000001 00000006     ................
   19df4:	00000001 00000006 00000001 00000003     ................
   19e04:	00000004 00000003 00000004 00000003     ................
   19e14:	00000005 00000002 00000005 00000007     ................
   19e24:	00000002 00000005 00000003 00000004     ................
   19e34:	00000003 00000007 00000001 00000006     ................
   19e44:	00000001 00000007 00000000 00000007     ................
   19e54:	00000007 00000003 00000005 00000002     ................
   19e64:	00000005 00000003 00000007 00000005     ................
   19e74:	00000002 00000007 00000001 00000007     ................
   19e84:	00000007 00000001 00000006 00000007     ................
   19e94:	00000003 00000005 00000003 00000007     ................
   19ea4:	00000005 00000003 00000006 00000001     ................
   19eb4:	00000007 00000007 00000003 00000005     ................
   19ec4:	00000007 00000003 00000005 00000002     ................
   19ed4:	00000005 00000007 00000003 00000007     ................
   19ee4:	00000007 00000007 00000001 00000007     ................
   19ef4:	00000001 00000006 00000001 00000007     ................
   19f04:	00000007 00000007 00000003 00000005     ................
   19f14:	00000003 00000004 00000003 00000007     ................
   19f24:	00000007 00000003 00000005 00000003     ................
   19f34:	00000004 00000003 00000007 00000007     ................
   19f44:	00000001 00000007 00000000 00000007     ................
   19f54:	00000003 00000005 00000003 00000004     ................
   19f64:	00000007 00000003 00000005 00000002     ................
   19f74:	00000005 00000003 00000006 00000001     ................
   19f84:	00000007 00000007 00000000 00000003     ................
   19f94:	00000005 00000002 00000005 00000003     ................
   19fa4:	00000004 00000003 00000004 00000007     ................
   19fb4:	00000003 00000004 00000003 00000000     ................
   19fc4:	00000007 00000000 00000007 00000000     ................
   19fd4:	00000007 00000006 00000001 00000006     ................
   19fe4:	00000001 00000006 00000003 00000004     ................
   19ff4:	00000003 00000004 00000003 00000004     ................
   1a004:	00000000 00000007 00000000 00000007     ................
   1a014:	00000000 00000006 00000001 00000004     ................
   1a024:	00000002 00000005 00000000 00000002     ................
   1a034:	00000004 00000003 00000004 00000002     ................
   1a044:	00000005 00000000 00000002 00000004     ................
   1a054:	00000001 00000006 00000000 00000000     ................
   1a064:	00000004 00000003 00000004 00000000     ................
   1a074:	00000006 00000000 00000006 00000001     ................
   1a084:	00000000 00000006 00000000 00000000     ................
   1a094:	00000004 00000002 00000005 00000006     ................
	...
   1a0ac:	00000004 00000002 00000004 00000002     ................
   1a0bc:	00000001 00000004 00000000 00000006     ................
	...
   1a0d4:	00000004 00000002 00000004 00000002     ................
   1a0e4:	00000001 00000004 00000000 00000006     ................
	...
   1a0fc:	00000004 00000002 00000004 00000003     ................
   1a10c:	00000004 00000000 00000004 00000002     ................
   1a11c:	00000000 00000004 00000002 00000005     ................
   1a12c:	00000002 00000000 00000004 00000000     ................
   1a13c:	00000002 00000005 00000002 00000004     ................
	...
   1a154:	00000007 00000000 00000004 00000002     ................
   1a164:	00000004 00000003 00000004 00000000     ................
   1a174:	00000006 00000001 00000006 00000000     ................
   1a184:	00000007 00000000 00000004 00000003     ................
   1a194:	00000004 00000000 00000007 00000000     ................
   1a1a4:	00000006 00000001 00000006 00000001     ................
   1a1b4:	00000004 00000002 00000005 00000002     ................
   1a1c4:	00000001 00000006 00000001 00000004     ................
   1a1d4:	00000003 00000004 00000003 00000004     ................
   1a1e4:	00000001 00000006 00000001 00000006     ................
   1a1f4:	00000001 00000002 00000005 00000007     ................
   1a204:	00000000 00000007 00000000 00000007     ................
   1a214:	00000003 00000004 00000003 00000001     ................
   1a224:	00000006 00000001 00000007 00000000     ................
   1a234:	00000007 00000007 00000000 00000007     ................
   1a244:	00000003 00000005 00000002 00000007     ................
   1a254:	00000001 00000007 00000007 00000000     ................
   1a264:	00000007 00000003 00000005 00000003     ................
   1a274:	00000004 00000003 00000007 00000007     ................
   1a284:	00000001 00000007 00000000 00000007     ................
   1a294:	00000007 00000003 00000007 00000001     ................
   1a2a4:	00000007 00000005 00000002 00000007     ................
   1a2b4:	00000001 00000007 00000007 00000003     ................
   1a2c4:	00000005 00000007 00000003 00000004     ................
   1a2d4:	00000003 00000007 00000003 00000005     ................
   1a2e4:	00000007 00000003 00000005 00000007     ................
   1a2f4:	00000003 00000004 00000003 00000007     ................
   1a304:	00000003 00000005 00000003 00000007     ................
   1a314:	00000005 00000002 00000005 00000003     ................
   1a324:	00000007 00000007 00000007 00000001     ................
   1a334:	00000006 00000001 00000007 00000003     ................
   1a344:	00000007 00000005 00000002 00000005     ................
   1a354:	00000003 00000007 00000001 00000006     ................
   1a364:	00000005 00000003 00000007 00000000     ................
   1a374:	00000007 00000001 00000006 00000007     ................
   1a384:	00000001 00000007 00000000 00000007     ................
   1a394:	00000007 00000000 00000007 00000001     ................
   1a3a4:	00000006 00000001 00000002 00000005     ................
   1a3b4:	00000007 00000000 00000007 00000000     ................
   1a3c4:	00000007 00000006 00000001 00000002     ................
   1a3d4:	00000005 00000006 00000003 00000004     ................
   1a3e4:	00000003 00000004 00000003 00000004     ................
   1a3f4:	00000003 00000004 00000007 00000000     ................
   1a404:	00000006 00000001 00000006 00000001     ................
   1a414:	00000000 00000006 00000001 00000006     ................
   1a424:	00000000 00000001 00000006 00000000     ................
   1a434:	00000000 00000007 00000004 00000002     ................
   1a444:	00000001 00000004 00000002 00000004     ................
   1a454:	00000001 00000006 00000000 00000000     ................
   1a464:	00000006 00000001 00000000 00000004     ................
   1a474:	00000002 00000004 00000002 00000005     ................
   1a484:	00000000 00000002 00000004 00000000     ................
   1a494:	00000000 00000006 00000005 00000002     ................
   1a4a4:	00000000 00000004 00000000 00000006     ................
	...
   1a4bc:	00000007 00000004 00000000 00000000     ................
   1a4cc:	00000006 00000000 00000004 00000002     ................
   1a4dc:	00000004 00000000 00000003 00000004     ................
   1a4ec:	00000000 00000004 00000002 00000004     ................
   1a4fc:	00000000 00000006 00000000 00000003     ................
   1a50c:	00000004 00000000 00000000 00000000     ................
   1a51c:	00000006 00000000 00000004 00000003     ................
   1a52c:	00000004 00000000 00000006 00000000     ................
   1a53c:	00000004 00000003 00000004 00000000     ................
   1a54c:	00000006 00000000 00000003 00000004     ................
	...
   1a564:	00000006 00000001 00000006 00000000     ................
   1a574:	00000004 00000003 00000004 00000002     ................
   1a584:	00000005 00000002 00000004 00000001     ................
   1a594:	00000002 00000004 00000001 00000006     ................
   1a5a4:	00000000 00000007 00000000 00000002     ................
   1a5b4:	00000005 00000002 00000005 00000002     ................
   1a5c4:	00000005 00000002 00000005 00000000     ................
   1a5d4:	00000003 00000004 00000003 00000004     ................
   1a5e4:	00000001 00000006 00000001 00000002     ................
   1a5f4:	00000005 00000002 00000005 00000003     ................
   1a604:	00000004 00000003 00000004 00000003     ................
   1a614:	00000005 00000006 00000001 00000007     ................
   1a624:	00000002 00000005 00000003 00000004     ................
   1a634:	00000003 00000007 00000000 00000007     ................
   1a644:	00000003 00000005 00000002 00000005     ................
   1a654:	00000007 00000003 00000007 00000004     ................
   1a664:	00000003 00000001 00000007 00000007     ................
   1a674:	00000000 00000007 00000003 00000005     ................
   1a684:	00000007 00000003 00000004 00000003     ................
   1a694:	00000007 00000007 00000001 00000007     ................
   1a6a4:	00000007 00000001 00000002 00000005     ................
   1a6b4:	00000007 00000003 00000007 00000007     ................
   1a6c4:	00000001 00000007 00000001 00000006     ................
   1a6d4:	00000007 00000003 00000005 00000003     ................
   1a6e4:	00000007 00000007 00000001 00000007     ................
   1a6f4:	00000001 00000006 00000003 00000005     ................
   1a704:	00000007 00000003 00000007 00000005     ................
   1a714:	00000003 00000006 00000001 00000007     ................
   1a724:	00000007 00000003 00000005 00000003     ................
   1a734:	00000004 00000007 00000003 00000007     ................
   1a744:	00000001 00000007 00000004 00000003     ................
   1a754:	00000007 00000001 00000007 00000004     ................
   1a764:	00000003 00000007 00000001 00000006     ................
   1a774:	00000005 00000003 00000006 00000001     ................
   1a784:	00000007 00000003 00000004 00000003     ................
   1a794:	00000005 00000002 00000005 00000003     ................
   1a7a4:	00000004 00000003 00000004 00000003     ................
   1a7b4:	00000007 00000000 00000005 00000002     ................
   1a7c4:	00000007 00000000 00000007 00000000     ................
   1a7d4:	00000007 00000002 00000005 00000002     ................
   1a7e4:	00000005 00000002 00000005 00000006     ................
   1a7f4:	00000003 00000004 00000001 00000006     ................
   1a804:	00000000 00000007 00000000 00000007     ................
	...
   1a81c:	00000007 00000000 00000004 00000003     ................
   1a82c:	00000004 00000002 00000004 00000001     ................
   1a83c:	00000006 00000000 00000007 00000000     ................
   1a84c:	00000000 00000006 00000001 00000004     ................
   1a85c:	00000000 00000006 00000000 00000003     ................
   1a86c:	00000004 00000000 00000004 00000002     ................
   1a87c:	00000000 00000007 00000000 00000004     ................
   1a88c:	00000000 00000002 00000004 00000000     ................
   1a89c:	00000007 00000000 00000004 00000002     ................
   1a8ac:	00000004 00000000 00000006 00000000     ................
   1a8bc:	00000003 00000004 00000000 00000000     ................
   1a8cc:	00000000 00000004 00000002 00000004     ................
   1a8dc:	00000002 00000004 00000001 00000006     ................
	...
   1a8f4:	00000004 00000002 00000000 00000004     ................
   1a904:	00000002 00000005 00000000 00000002     ................
   1a914:	00000004 00000000 00000000 00000006     ................
   1a924:	00000000 00000007 00000000 00000000     ................
   1a934:	00000004 00000002 00000004 00000003     ................
   1a944:	00000000 00000004 00000000 00000006     ................
   1a954:	00000001 00000006 00000000 00000000     ................
   1a964:	00000006 00000001 00000002 00000004     ................
   1a974:	00000000 00000007 00000000 00000006     ................
   1a984:	00000001 00000002 00000004 00000001     ................
   1a994:	00000006 00000000 00000001 00000006     ................
   1a9a4:	00000000 00000007 00000000 00000007     ................
   1a9b4:	00000000 00000004 00000003 00000004     ................
   1a9c4:	00000003 00000004 00000003 00000004     ................
   1a9d4:	00000001 00000002 00000005 00000006     ................
   1a9e4:	00000001 00000002 00000005 00000000     ................
   1a9f4:	00000007 00000000 00000007 00000007     ................
   1aa04:	00000000 00000003 00000004 00000003     ................
   1aa14:	00000005 00000002 00000005 00000003     ................
   1aa24:	00000004 00000007 00000003 00000004     ................
   1aa34:	00000003 00000005 00000007 00000002     ................
   1aa44:	00000005 00000003 00000004 00000003     ................
   1aa54:	00000007 00000003 00000005 00000002     ................
   1aa64:	00000005 00000003 00000007 00000001     ................
   1aa74:	00000006 00000007 00000001 00000007     ................
   1aa84:	00000003 00000005 00000006 00000003     ................
   1aa94:	00000007 00000001 00000007 00000003     ................
   1aaa4:	00000005 00000007 00000000 00000007     ................
   1aab4:	00000007 00000003 00000007 00000005     ................
   1aac4:	00000003 00000007 00000001 00000006     ................
   1aad4:	00000001 00000007 00000007 00000007     ................
   1aae4:	00000007 00000003 00000005 00000003     ................
   1aaf4:	00000005 00000002 00000007 00000001     ................
   1ab04:	00000007 00000007 00000003 00000005     ................
   1ab14:	00000003 00000004 00000007 00000003     ................
   1ab24:	00000007 00000007 00000001 00000007     ................
   1ab34:	00000000 00000007 00000007 00000003     ................
   1ab44:	00000005 00000003 00000004 00000007     ................
   1ab54:	00000003 00000005 00000007 00000000     ................
   1ab64:	00000007 00000003 00000005 00000006     ................
   1ab74:	00000001 00000007 00000002 00000005     ................
   1ab84:	00000007 00000003 00000004 00000003     ................
   1ab94:	00000005 00000002 00000005 00000003     ................
   1aba4:	00000004 00000003 00000004 00000003     ................
   1abb4:	00000007 00000004 00000003 00000000     ................
   1abc4:	00000007 00000000 00000007 00000000     ................
   1abd4:	00000007 00000002 00000005 00000002     ................
   1abe4:	00000005 00000002 00000007 00000004     ................
   1abf4:	00000003 00000000 00000007 00000000     ................
   1ac04:	00000000 00000007 00000004 00000003     ................
   1ac14:	00000004 00000000 00000003 00000004     ................
   1ac24:	00000002 00000005 00000000 00000006     ................
   1ac34:	00000000 00000003 00000004 00000000     ................
   1ac44:	00000007 00000000 00000004 00000002     ................
   1ac54:	00000005 00000000 00000006 00000000     ................
   1ac64:	00000000 00000007 00000000 00000004     ................
   1ac74:	00000002 00000000 00000004 00000003     ................
   1ac84:	00000004 00000000 00000006 00000000     ................
   1ac94:	00000000 00000006 00000001 00000006     ................
	...
   1acb0:	00000006 00000000 00000004 00000003     ................
   1acc0:	00000004 00000000 00000000 00000006     ................
	...
   1acd8:	00000004 00000002 00000004 00000007     ................
	...
   1acf0:	00000004 00000002 00000004 00000000     ................
   1ad00:	00000006 00000000 00000003 00000004     ................
	...
   1ad18:	00000004 00000002 00000004 00000002     ................
   1ad28:	00000001 00000004 00000002 00000004     ................
   1ad38:	00000000 00000002 00000005 00000000     ................
   1ad48:	00000002 00000004 00000000 00000007     ................
	...
   1ad60:	00000006 00000000 00000007 00000000     ................
   1ad70:	00000000 00000006 00000001 00000006     ................
   1ad80:	00000000 00000007 00000000 00000004     ................
   1ad90:	00000003 00000004 00000000 00000007     ................
   1ada0:	00000000 00000006 00000001 00000006     ................
   1adb0:	00000001 00000000 00000006 00000001     ................
   1adc0:	00000006 00000001 00000006 00000001     ................
   1add0:	00000006 00000001 00000000 00000007     ................
   1ade0:	00000000 00000007 00000000 00000001     ................
   1adf0:	00000006 00000005 00000002 00000005     ................
   1ae00:	00000003 00000006 00000001 00000006     ................
   1ae10:	00000001 00000007 00000000 00000007     ................
   1ae20:	00000001 00000006 00000001 00000007     ................
   1ae30:	00000006 00000001 00000007 00000003     ................
   1ae40:	00000004 00000003 00000005 00000002     ................
   1ae50:	00000005 00000003 00000007 00000007     ................
   1ae60:	00000000 00000007 00000003 00000005     ................
   1ae70:	00000003 00000004 00000003 00000007     ................
   1ae80:	00000007 00000001 00000007 00000000     ................
   1ae90:	00000007 00000007 00000003 00000007     ................
   1aea0:	00000001 00000007 00000005 00000002     ................
   1aeb0:	00000007 00000003 00000005 00000007     ................
   1aec0:	00000003 00000007 00000001 00000007     ................
   1aed0:	00000004 00000003 00000007 00000007     ................
   1aee0:	00000003 00000005 00000003 00000007     ................
   1aef0:	00000005 00000003 00000004 00000003     ................
   1af00:	00000007 00000007 00000003 00000005     ................
   1af10:	00000003 00000007 00000000 00000007     ................
   1af20:	00000007 00000003 00000005 00000003     ................
   1af30:	00000007 00000000 00000007 00000003     ................
   1af40:	00000005 00000003 00000007 00000004     ................
   1af50:	00000003 00000007 00000001 00000007     ................
   1af60:	00000000 00000007 00000003 00000005     ................
   1af70:	00000002 00000005 00000007 00000003     ................
   1af80:	00000004 00000003 00000005 00000002     ................
   1af90:	00000005 00000003 00000004 00000003     ................
   1afa0:	00000007 00000000 00000007 00000000     ................
   1afb0:	00000007 00000001 00000006 00000001     ................
   1afc0:	00000006 00000001 00000006 00000007     ................
   1afd0:	00000001 00000006 00000001 00000004     ................
   1afe0:	00000003 00000004 00000002 00000001     ................
   1aff0:	00000006 00000001 00000006 00000001     ................
   1b000:	00000006 00000000 00000007 00000000     ................
   1b010:	00000003 00000004 00000000 00000007     ................
	...
   1b028:	00000007 00000004 00000002 00000001     ................
   1b038:	00000004 00000002 00000004 00000001     ................
   1b048:	00000002 00000004 00000000 00000007     ................
   1b058:	00000000 00000004 00000002 00000004     ................
   1b068:	00000003 00000000 00000004 00000000     ................
   1b078:	00000006 00000000 00000007 00000000     ................
   1b088:	00000000 00000006 00000000 00000004     ................
   1b098:	00000003 00000004 00000000 00000000     ................
   1b0a8:	00000006 00000000 00000000 00000006     ................
   1b0b8:	00000000 00000007 00000000 00000000     ................
   1b0c8:	00000004 00000000 00000006 00000000     ................
   1b0d8:	00000000 00000006 00000005 00000002     ................
	...
   1b0f0:	00000004 00000000 00000002 00000004     ................
   1b100:	00000000 00000006 00000001 00000006     ................
	...
   1b11c:	00000006 00000000 00000005 00000002     ................
   1b12c:	00000004 00000000 00000000 00000006     ................
   1b13c:	00000000 00000007 00000000 00000000     ................
   1b14c:	00000006 00000000 00000007 00000000     ................
   1b15c:	00000000 00000004 00000003 00000004     ................
   1b16c:	00000000 00000006 00000001 00000006     ................
	...
   1b184:	00000007 00000000 00000000 00000007     ................
   1b194:	00000004 00000002 00000005 00000002     ................
   1b1a4:	00000000 00000007 00000000 00000005     ................
   1b1b4:	00000002 00000004 00000003 00000004     ................
   1b1c4:	00000003 00000004 00000003 00000004     ................
   1b1d4:	00000003 00000000 00000005 00000002     ................
   1b1e4:	00000005 00000002 00000005 00000002     ................
   1b1f4:	00000005 00000002 00000005 00000003     ................
   1b204:	00000004 00000007 00000000 00000007     ................
   1b214:	00000007 00000000 00000007 00000003     ................
   1b224:	00000004 00000003 00000005 00000002     ................
   1b234:	00000005 00000003 00000007 00000000     ................
   1b244:	00000007 00000005 00000003 00000006     ................
   1b254:	00000001 00000007 00000001 00000006     ................
   1b264:	00000007 00000001 00000007 00000003     ................
   1b274:	00000004 00000003 00000007 00000007     ................
   1b284:	00000001 00000007 00000001 00000006     ................
   1b294:	00000007 00000001 00000007 00000007     ................
   1b2a4:	00000003 00000005 00000002 00000005     ................
   1b2b4:	00000003 00000007 00000007 00000007     ................
   1b2c4:	00000001 00000007 00000003 00000005     ................
   1b2d4:	00000002 00000005 00000003 00000007     ................
   1b2e4:	00000007 00000003 00000005 00000003     ................
   1b2f4:	00000005 00000002 00000007 00000007     ................
   1b304:	00000001 00000007 00000003 00000007     ................
   1b314:	00000005 00000003 00000000 00000007     ................
   1b324:	00000007 00000003 00000005 00000003     ................
   1b334:	00000005 00000002 00000005 00000007     ................
   1b344:	00000003 00000007 00000000 00000007     ................
   1b354:	00000003 00000005 00000003 00000004     ................
   1b364:	00000007 00000003 00000005 00000002     ................
   1b374:	00000005 00000007 00000003 00000004     ................
   1b384:	00000003 00000005 00000002 00000005     ................
   1b394:	00000007 00000002 00000005 00000003     ................
   1b3a4:	00000004 00000003 00000004 00000003     ................
   1b3b4:	00000007 00000004 00000003 00000004     ................
   1b3c4:	00000003 00000004 00000003 00000007     ................
   1b3d4:	00000000 00000005 00000002 00000005     ................
   1b3e4:	00000002 00000004 00000003 00000004     ................
   1b3f4:	00000003 00000004 00000003 00000000     ................
   1b404:	00000006 00000001 00000006 00000001     ................
   1b414:	00000004 00000002 00000005 00000002     ................
   1b424:	00000004 00000003 00000000 00000004     ................
   1b434:	00000003 00000000 00000004 00000002     ................
   1b444:	00000005 00000000 00000006 00000000     ................
   1b454:	00000007 00000000 00000000 00000004     ................
   1b464:	00000002 00000005 00000002 00000004     ................
   1b474:	00000000 00000006 00000001 00000000     ................
   1b484:	00000006 00000000 00000000 00000004     ................
   1b494:	00000002 00000005 00000002 00000000     ................
   1b4a4:	00000004 00000000 00000000 00000006     ................
   1b4b4:	00000000 00000006 00000001 00000006     ................
	...
   1b4d0:	00000004 00000002 00000004 00000002     ................
   1b4e0:	00000001 00000004 00000000 00000006     ................
	...
   1b4f8:	00000004 00000002 00000004 00000003     ................
   1b508:	00000004 00000000 00000000 00000004     ................
   1b518:	00000002 00000000 00000004 00000003     ................
   1b528:	00000004 00000000 00000006 00000000     ................
   1b538:	00000000 00000006 00000001 00000006     ................
	...
   1b550:	00000006 00000001 00000004 00000002     ................
   1b560:	00000004 00000003 00000000 00000004     ................
   1b570:	00000000 00000003 00000004 00000000     ................
   1b580:	00000006 00000005 00000002 00000004     ................
   1b590:	00000003 00000004 00000000 00000003     ................
   1b5a0:	00000004 00000006 00000001 00000006     ................
   1b5b0:	00000001 00000006 00000000 00000003     ................
   1b5c0:	00000004 00000003 00000004 00000003     ................
   1b5d0:	00000000 00000005 00000002 00000005     ................
   1b5e0:	00000002 00000005 00000002 00000005     ................
   1b5f0:	00000002 00000005 00000002 00000005     ................
   1b600:	00000003 00000004 00000003 00000006     ................
   1b610:	00000001 00000007 00000000 00000007     ................
   1b620:	00000007 00000000 00000003 00000005     ................
   1b630:	00000006 00000003 00000005 00000003     ................
   1b640:	00000004 00000003 00000007 00000005     ................
   1b650:	00000002 00000005 00000003 00000007     ................
   1b660:	00000000 00000007 00000007 00000001     ................
   1b670:	00000007 00000006 00000001 00000007     ................
   1b680:	00000007 00000003 00000005 00000003     ................
   1b690:	00000004 00000003 00000007 00000007     ................
   1b6a0:	00000001 00000007 00000007 00000001     ................
   1b6b0:	00000006 00000001 00000007 00000003     ................
   1b6c0:	00000007 00000005 00000003 00000007     ................
   1b6d0:	00000005 00000002 00000005 00000003     ................
   1b6e0:	00000007 00000007 00000007 00000001     ................
   1b6f0:	00000007 00000003 00000004 00000003     ................
   1b700:	00000007 00000003 00000005 00000007     ................
   1b710:	00000003 00000005 00000003 00000004     ................
   1b720:	00000007 00000003 00000007 00000005     ................
   1b730:	00000003 00000007 00000004 00000003     ................
   1b740:	00000007 00000001 00000003 00000004     ................
   1b750:	00000007 00000003 00000007 00000001     ................
   1b760:	00000006 00000001 00000007 00000003     ................
   1b770:	00000004 00000003 00000005 00000007     ................
   1b780:	00000002 00000005 00000003 00000004     ................
   1b790:	00000003 00000005 00000002 00000007     ................
   1b7a0:	00000001 00000006 00000001 00000006     ................
   1b7b0:	00000001 00000007 00000006 00000001     ................
   1b7c0:	00000006 00000001 00000006 00000003     ................
   1b7d0:	00000005 00000002 00000001 00000004     ................
   1b7e0:	00000003 00000004 00000002 00000005     ................
   1b7f0:	00000002 00000005 00000002 00000005     ................
   1b800:	00000002 00000004 00000003 00000004     ................
   1b810:	00000003 00000004 00000000 00000007     ................
   1b820:	00000000 00000006 00000001 00000006     ................
   1b830:	00000000 00000005 00000002 00000004     ................
   1b840:	00000000 00000003 00000004 00000000     ................
   1b850:	00000006 00000001 00000006 00000000     ................
   1b860:	00000004 00000002 00000001 00000004     ................
   1b870:	00000002 00000004 00000000 00000007     ................
	...
   1b888:	00000004 00000002 00000004 00000000     ................
   1b898:	00000007 00000000 00000004 00000002     ................
   1b8a8:	00000004 00000000 00000000 00000006     ................
   1b8b8:	00000000 00000007 00000000 00000004     ................
   1b8c8:	00000000 00000006 00000000 00000004     ................
   1b8d8:	00000002 00000000 00000007 00000000     ................
   1b8e8:	00000004 00000000 00000000 00000006     ................
	...
   1b900:	00000006 00000000 00000007 00000000     ................
   1b910:	00000000 00000004 00000002 00000000     ................
   1b920:	00000004 00000003 00000004 00000000     ................
   1b930:	00000004 00000002 00000000 00000006     ................
   1b940:	00000001 00000004 00000002 00000004     ................
   1b950:	00000000 00000003 00000004 00000000     ................
   1b960:	00000006 00000005 00000002 00000000     ................
   1b970:	00000004 00000003 00000000 00000004     ................
   1b980:	00000002 00000001 00000004 00000002     ................
   1b990:	00000005 00000002 00000004 00000003     ................
   1b9a0:	00000004 00000000 00000007 00000000     ................
   1b9b0:	00000007 00000000 00000006 00000001     ................
   1b9c0:	00000006 00000001 00000002 00000005     ................
   1b9d0:	00000002 00000005 00000000 00000007     ................
   1b9e0:	00000000 00000007 00000000 00000003     ................
   1b9f0:	00000004 00000003 00000004 00000003     ................
   1ba00:	00000005 00000002 00000005 00000006     ................
   1ba10:	00000003 00000005 00000002 00000005     ................
   1ba20:	00000003 00000006 00000001 00000007     ................
   1ba30:	00000000 00000007 00000007 00000001     ................
   1ba40:	00000006 00000001 00000007 00000003     ................
   1ba50:	00000004 00000003 00000005 00000003     ................
   1ba60:	00000006 00000005 00000003 00000007     ................
   1ba70:	00000001 00000006 00000007 00000003     ................
   1ba80:	00000005 00000003 00000007 00000001     ................
   1ba90:	00000006 00000001 00000007 00000007     ................
   1baa0:	00000003 00000005 00000003 00000005     ................
   1bab0:	00000006 00000003 00000005 00000003     ................
   1bac0:	00000007 00000007 00000001 00000007     ................
   1bad0:	00000007 00000000 00000003 00000007     ................
   1bae0:	00000005 00000003 00000007 00000007     ................
   1baf0:	00000001 00000007 00000001 00000006     ................
   1bb00:	00000003 00000005 00000007 00000003     ................
   1bb10:	00000007 00000005 00000003 00000004     ................
   1bb20:	00000003 00000007 00000003 00000005     ................
   1bb30:	00000007 00000003 00000004 00000003     ................
   1bb40:	00000001 00000007 00000007 00000000     ................
   1bb50:	00000007 00000007 00000001 00000007     ................
   1bb60:	00000002 00000005 00000003 00000007     ................
   1bb70:	00000000 00000007 00000001 00000007     ................
   1bb80:	00000004 00000003 00000007 00000000     ................
   1bb90:	00000007 00000005 00000002 00000007     ................
   1bba0:	00000001 00000006 00000001 00000006     ................
   1bbb0:	00000001 00000007 00000006 00000001     ................
   1bbc0:	00000002 00000005 00000002 00000007     ................
   1bbd0:	00000001 00000006 00000000              ............

0001bbdc <S_ACC>:
	...
   1bbe4:	00000007 00000000 00000007 00000003     ................
   1bbf4:	00000004 00000002 00000005 00000000     ................
   1bc04:	00000003 00000004 00000003 00000004     ................
   1bc14:	00000003 00000000 00000005 00000002     ................
   1bc24:	00000001 00000006 00000000 00000001     ................
   1bc34:	00000002 00000005 00000002 00000001     ................
   1bc44:	00000004 00000003 00000000 00000000     ................
   1bc54:	00000007 00000000 00000001 00000002     ................
   1bc64:	00000001 00000004 00000003 00000000     ................
   1bc74:	00000000 00000003 00000000 00000007     ................
	...
   1bc8c:	00000001 00000002 00000001 00000002     ................
   1bc9c:	00000004 00000001 00000002 00000000     ................
   1bcac:	00000001 00000000 00000002 00000001     ................
   1bcbc:	00000006 00000001 00000000 00000000     ................
   1bccc:	00000001 00000002 00000001 00000000     ................
   1bcdc:	00000003 00000000 00000007 00000000     ................
   1bcec:	00000001 00000000 00000002 00000001     ................
   1bcfc:	00000000 00000003 00000000 00000006     ................
   1bd0c:	00000001 00000000 00000000 00000001     ................
   1bd1c:	00000002 00000001 00000002 00000004     ................
   1bd2c:	00000001 00000002 00000001 00000000     ................
   1bd3c:	00000002 00000005 00000002 00000001     ................
	...
   1bd54:	00000007 00000000 00000001 00000002     ................
   1bd64:	00000001 00000006 00000001 00000000     ................
   1bd74:	00000007 00000000 00000001 00000002     ................
   1bd84:	00000005 00000002 00000001 00000004     ................
   1bd94:	00000003 00000000 00000007 00000000     ................
   1bda4:	00000000 00000007 00000000 00000007     ................
   1bdb4:	00000000 00000001 00000006 00000001     ................
   1bdc4:	00000007 00000000 00000007 00000000     ................
   1bdd4:	00000007 00000000 00000005 00000002     ................
   1bde4:	00000005 00000002 00000004 00000003     ................
   1bdf4:	00000004 00000003 00000004 00000006     ................
   1be04:	00000001 00000006 00000001 00000006     ................
   1be14:	00000005 00000002 00000005 00000007     ................
   1be24:	00000002 00000005 00000006 00000001     ................
   1be34:	00000006 00000007 00000004 00000003     ................
   1be44:	00000004 00000007 00000000 00000007     ................
   1be54:	00000007 00000006 00000005 00000002     ................
   1be64:	00000005 00000006 00000007 00000005     ................
   1be74:	00000002 00000007 00000004 00000007     ................
   1be84:	00000007 00000004 00000003 00000007     ................
   1be94:	00000006 00000005 00000006 00000007     ................
   1bea4:	00000005 00000006 00000003 00000004     ................
   1beb4:	00000007 00000007 00000006 00000005     ................
   1bec4:	00000007 00000006 00000005 00000002     ................
   1bed4:	00000005 00000007 00000006 00000007     ................
   1bee4:	00000007 00000007 00000004 00000007     ................
   1bef4:	00000004 00000003 00000004 00000007     ................
   1bf04:	00000007 00000007 00000006 00000005     ................
   1bf14:	00000006 00000001 00000006 00000007     ................
   1bf24:	00000007 00000006 00000005 00000006     ................
   1bf34:	00000001 00000006 00000007 00000007     ................
   1bf44:	00000004 00000007 00000000 00000007     ................
   1bf54:	00000006 00000005 00000006 00000001     ................
   1bf64:	00000007 00000006 00000005 00000002     ................
   1bf74:	00000005 00000006 00000003 00000004     ................
   1bf84:	00000007 00000007 00000000 00000006     ................
   1bf94:	00000005 00000002 00000005 00000006     ................
   1bfa4:	00000001 00000006 00000001 00000007     ................
   1bfb4:	00000006 00000001 00000006 00000000     ................
   1bfc4:	00000007 00000000 00000007 00000000     ................
   1bfd4:	00000007 00000003 00000004 00000003     ................
   1bfe4:	00000004 00000003 00000006 00000001     ................
   1bff4:	00000006 00000001 00000006 00000001     ................
   1c004:	00000000 00000007 00000000 00000007     ................
   1c014:	00000000 00000003 00000004 00000001     ................
   1c024:	00000002 00000005 00000000 00000002     ................
   1c034:	00000001 00000006 00000001 00000002     ................
   1c044:	00000005 00000000 00000002 00000001     ................
   1c054:	00000004 00000003 00000000 00000000     ................
   1c064:	00000001 00000006 00000001 00000000     ................
   1c074:	00000003 00000000 00000003 00000004     ................
   1c084:	00000000 00000003 00000000 00000000     ................
   1c094:	00000001 00000002 00000005 00000003     ................
	...
   1c0ac:	00000001 00000002 00000001 00000002     ................
   1c0bc:	00000004 00000001 00000000 00000003     ................
	...
   1c0d4:	00000001 00000002 00000001 00000002     ................
   1c0e4:	00000004 00000001 00000000 00000003     ................
	...
   1c0fc:	00000001 00000002 00000001 00000006     ................
   1c10c:	00000001 00000000 00000001 00000002     ................
   1c11c:	00000000 00000001 00000002 00000005     ................
   1c12c:	00000002 00000000 00000001 00000000     ................
   1c13c:	00000002 00000005 00000002 00000001     ................
	...
   1c154:	00000007 00000000 00000001 00000002     ................
   1c164:	00000001 00000006 00000001 00000000     ................
   1c174:	00000003 00000004 00000003 00000000     ................
   1c184:	00000007 00000000 00000001 00000006     ................
   1c194:	00000001 00000000 00000007 00000000     ................
   1c1a4:	00000003 00000004 00000003 00000004     ................
   1c1b4:	00000001 00000002 00000005 00000002     ................
   1c1c4:	00000004 00000003 00000004 00000001     ................
   1c1d4:	00000006 00000001 00000006 00000001     ................
   1c1e4:	00000004 00000003 00000004 00000003     ................
   1c1f4:	00000004 00000002 00000005 00000007     ................
   1c204:	00000000 00000007 00000000 00000007     ................
   1c214:	00000006 00000001 00000006 00000004     ................
   1c224:	00000003 00000004 00000007 00000000     ................
   1c234:	00000007 00000007 00000000 00000007     ................
   1c244:	00000006 00000005 00000002 00000007     ................
   1c254:	00000004 00000007 00000007 00000000     ................
   1c264:	00000007 00000006 00000005 00000006     ................
   1c274:	00000001 00000006 00000007 00000007     ................
   1c284:	00000004 00000007 00000000 00000007     ................
   1c294:	00000007 00000006 00000007 00000004     ................
   1c2a4:	00000007 00000005 00000002 00000007     ................
   1c2b4:	00000004 00000007 00000007 00000006     ................
   1c2c4:	00000005 00000007 00000006 00000001     ................
   1c2d4:	00000006 00000007 00000006 00000005     ................
   1c2e4:	00000007 00000006 00000005 00000007     ................
   1c2f4:	00000006 00000001 00000006 00000007     ................
   1c304:	00000006 00000005 00000006 00000007     ................
   1c314:	00000005 00000002 00000005 00000006     ................
   1c324:	00000007 00000007 00000007 00000004     ................
   1c334:	00000003 00000004 00000007 00000006     ................
   1c344:	00000007 00000005 00000002 00000005     ................
   1c354:	00000006 00000007 00000004 00000003     ................
   1c364:	00000005 00000006 00000007 00000000     ................
   1c374:	00000007 00000004 00000003 00000007     ................
   1c384:	00000004 00000007 00000000 00000007     ................
   1c394:	00000007 00000000 00000007 00000004     ................
   1c3a4:	00000003 00000004 00000002 00000005     ................
   1c3b4:	00000007 00000000 00000007 00000000     ................
   1c3c4:	00000007 00000003 00000004 00000002     ................
   1c3d4:	00000005 00000003 00000006 00000001     ................
   1c3e4:	00000006 00000001 00000006 00000001     ................
   1c3f4:	00000006 00000001 00000007 00000000     ................
   1c404:	00000003 00000004 00000003 00000004     ................
   1c414:	00000000 00000003 00000004 00000003     ................
   1c424:	00000000 00000004 00000003 00000000     ................
   1c434:	00000000 00000007 00000001 00000002     ................
   1c444:	00000004 00000001 00000002 00000001     ................
   1c454:	00000004 00000003 00000000 00000000     ................
   1c464:	00000003 00000004 00000000 00000001     ................
   1c474:	00000002 00000001 00000002 00000005     ................
   1c484:	00000000 00000002 00000001 00000000     ................
   1c494:	00000000 00000003 00000005 00000002     ................
   1c4a4:	00000000 00000001 00000000 00000003     ................
	...
   1c4bc:	00000007 00000001 00000000 00000000     ................
   1c4cc:	00000003 00000000 00000001 00000002     ................
   1c4dc:	00000001 00000000 00000006 00000001     ................
   1c4ec:	00000000 00000001 00000002 00000001     ................
   1c4fc:	00000000 00000003 00000000 00000006     ................
   1c50c:	00000001 00000000 00000000 00000000     ................
   1c51c:	00000003 00000000 00000001 00000006     ................
   1c52c:	00000001 00000000 00000003 00000000     ................
   1c53c:	00000001 00000006 00000001 00000000     ................
   1c54c:	00000003 00000000 00000006 00000001     ................
	...
   1c564:	00000003 00000004 00000003 00000000     ................
   1c574:	00000001 00000006 00000001 00000002     ................
   1c584:	00000005 00000002 00000001 00000004     ................
   1c594:	00000002 00000001 00000004 00000003     ................
   1c5a4:	00000000 00000007 00000000 00000002     ................
   1c5b4:	00000005 00000002 00000005 00000002     ................
   1c5c4:	00000005 00000002 00000005 00000000     ................
   1c5d4:	00000006 00000001 00000006 00000001     ................
   1c5e4:	00000004 00000003 00000004 00000002     ................
   1c5f4:	00000005 00000002 00000005 00000006     ................
   1c604:	00000001 00000006 00000001 00000006     ................
   1c614:	00000005 00000003 00000004 00000007     ................
   1c624:	00000002 00000005 00000006 00000001     ................
   1c634:	00000006 00000007 00000000 00000007     ................
   1c644:	00000006 00000005 00000002 00000005     ................
   1c654:	00000007 00000006 00000007 00000001     ................
   1c664:	00000006 00000004 00000007 00000007     ................
   1c674:	00000000 00000007 00000006 00000005     ................
   1c684:	00000007 00000006 00000001 00000006     ................
   1c694:	00000007 00000007 00000004 00000007     ................
   1c6a4:	00000007 00000004 00000002 00000005     ................
   1c6b4:	00000007 00000006 00000007 00000007     ................
   1c6c4:	00000004 00000007 00000004 00000003     ................
   1c6d4:	00000007 00000006 00000005 00000006     ................
   1c6e4:	00000007 00000007 00000004 00000007     ................
   1c6f4:	00000004 00000003 00000006 00000005     ................
   1c704:	00000007 00000006 00000007 00000005     ................
   1c714:	00000006 00000003 00000004 00000007     ................
   1c724:	00000007 00000006 00000005 00000006     ................
   1c734:	00000001 00000007 00000006 00000007     ................
   1c744:	00000004 00000007 00000001 00000006     ................
   1c754:	00000007 00000004 00000007 00000001     ................
   1c764:	00000006 00000007 00000004 00000003     ................
   1c774:	00000005 00000006 00000003 00000004     ................
   1c784:	00000007 00000006 00000001 00000006     ................
   1c794:	00000005 00000002 00000005 00000006     ................
   1c7a4:	00000001 00000006 00000001 00000006     ................
   1c7b4:	00000007 00000000 00000005 00000002     ................
   1c7c4:	00000007 00000000 00000007 00000000     ................
   1c7d4:	00000007 00000002 00000005 00000002     ................
   1c7e4:	00000005 00000002 00000005 00000003     ................
   1c7f4:	00000006 00000001 00000004 00000003     ................
   1c804:	00000000 00000007 00000000 00000007     ................
	...
   1c81c:	00000007 00000000 00000001 00000006     ................
   1c82c:	00000001 00000002 00000001 00000004     ................
   1c83c:	00000003 00000000 00000007 00000000     ................
   1c84c:	00000000 00000003 00000004 00000001     ................
   1c85c:	00000000 00000003 00000000 00000006     ................
   1c86c:	00000001 00000000 00000001 00000002     ................
   1c87c:	00000000 00000007 00000000 00000001     ................
   1c88c:	00000000 00000002 00000001 00000000     ................
   1c89c:	00000007 00000000 00000001 00000002     ................
   1c8ac:	00000001 00000000 00000003 00000000     ................
   1c8bc:	00000006 00000001 00000000 00000000     ................
   1c8cc:	00000000 00000001 00000002 00000001     ................
   1c8dc:	00000002 00000001 00000004 00000003     ................
	...
   1c8f4:	00000001 00000002 00000000 00000001     ................
   1c904:	00000002 00000005 00000000 00000002     ................
   1c914:	00000001 00000000 00000000 00000003     ................
   1c924:	00000000 00000007 00000000 00000000     ................
   1c934:	00000001 00000002 00000001 00000006     ................
   1c944:	00000000 00000001 00000000 00000003     ................
   1c954:	00000004 00000003 00000000 00000000     ................
   1c964:	00000003 00000004 00000002 00000001     ................
   1c974:	00000000 00000007 00000000 00000003     ................
   1c984:	00000004 00000002 00000001 00000004     ................
   1c994:	00000003 00000000 00000004 00000003     ................
   1c9a4:	00000000 00000007 00000000 00000007     ................
   1c9b4:	00000000 00000001 00000006 00000001     ................
   1c9c4:	00000006 00000001 00000006 00000001     ................
   1c9d4:	00000004 00000002 00000005 00000003     ................
   1c9e4:	00000004 00000002 00000005 00000000     ................
   1c9f4:	00000007 00000000 00000007 00000007     ................
   1ca04:	00000000 00000006 00000001 00000006     ................
   1ca14:	00000005 00000002 00000005 00000006     ................
   1ca24:	00000001 00000007 00000006 00000001     ................
   1ca34:	00000006 00000005 00000007 00000002     ................
   1ca44:	00000005 00000006 00000001 00000006     ................
   1ca54:	00000007 00000006 00000005 00000002     ................
   1ca64:	00000005 00000006 00000007 00000004     ................
   1ca74:	00000003 00000007 00000004 00000007     ................
   1ca84:	00000006 00000005 00000003 00000006     ................
   1ca94:	00000007 00000004 00000007 00000006     ................
   1caa4:	00000005 00000007 00000000 00000007     ................
   1cab4:	00000007 00000006 00000007 00000005     ................
   1cac4:	00000006 00000007 00000004 00000003     ................
   1cad4:	00000004 00000007 00000007 00000007     ................
   1cae4:	00000007 00000006 00000005 00000006     ................
   1caf4:	00000005 00000002 00000007 00000004     ................
   1cb04:	00000007 00000007 00000006 00000005     ................
   1cb14:	00000006 00000001 00000007 00000006     ................
   1cb24:	00000007 00000007 00000004 00000007     ................
   1cb34:	00000000 00000007 00000007 00000006     ................
   1cb44:	00000005 00000006 00000001 00000007     ................
   1cb54:	00000006 00000005 00000007 00000000     ................
   1cb64:	00000007 00000006 00000005 00000003     ................
   1cb74:	00000004 00000007 00000002 00000005     ................
   1cb84:	00000007 00000006 00000001 00000006     ................
   1cb94:	00000005 00000002 00000005 00000006     ................
   1cba4:	00000001 00000006 00000001 00000006     ................
   1cbb4:	00000007 00000001 00000006 00000000     ................
   1cbc4:	00000007 00000000 00000007 00000000     ................
   1cbd4:	00000007 00000002 00000005 00000002     ................
   1cbe4:	00000005 00000002 00000007 00000001     ................
   1cbf4:	00000006 00000000 00000007 00000000     ................
   1cc04:	00000000 00000007 00000001 00000006     ................
   1cc14:	00000001 00000000 00000006 00000001     ................
   1cc24:	00000002 00000005 00000000 00000003     ................
   1cc34:	00000000 00000006 00000001 00000000     ................
   1cc44:	00000007 00000000 00000001 00000002     ................
   1cc54:	00000005 00000000 00000003 00000000     ................
   1cc64:	00000000 00000007 00000000 00000001     ................
   1cc74:	00000002 00000000 00000001 00000006     ................
   1cc84:	00000001 00000000 00000003 00000000     ................
   1cc94:	00000000 00000003 00000004 00000003     ................
	...
   1ccb0:	00000003 00000000 00000001 00000006     ................
   1ccc0:	00000001 00000000 00000000 00000003     ................
	...
   1ccd8:	00000001 00000002 00000001 00000007     ................
	...
   1ccf0:	00000001 00000002 00000001 00000000     ................
   1cd00:	00000003 00000000 00000006 00000001     ................
	...
   1cd18:	00000001 00000002 00000001 00000002     ................
   1cd28:	00000004 00000001 00000002 00000001     ................
   1cd38:	00000000 00000002 00000005 00000000     ................
   1cd48:	00000002 00000001 00000000 00000007     ................
	...
   1cd60:	00000003 00000000 00000007 00000000     ................
   1cd70:	00000000 00000003 00000004 00000003     ................
   1cd80:	00000000 00000007 00000000 00000001     ................
   1cd90:	00000006 00000001 00000000 00000007     ................
   1cda0:	00000000 00000003 00000004 00000003     ................
   1cdb0:	00000004 00000000 00000003 00000004     ................
   1cdc0:	00000003 00000004 00000003 00000004     ................
   1cdd0:	00000003 00000004 00000000 00000007     ................
   1cde0:	00000000 00000007 00000000 00000004     ................
   1cdf0:	00000003 00000005 00000002 00000005     ................
   1ce00:	00000006 00000003 00000004 00000003     ................
   1ce10:	00000004 00000007 00000000 00000007     ................
   1ce20:	00000004 00000003 00000004 00000007     ................
   1ce30:	00000003 00000004 00000007 00000006     ................
   1ce40:	00000001 00000006 00000005 00000002     ................
   1ce50:	00000005 00000006 00000007 00000007     ................
   1ce60:	00000000 00000007 00000006 00000005     ................
   1ce70:	00000006 00000001 00000006 00000007     ................
   1ce80:	00000007 00000004 00000007 00000000     ................
   1ce90:	00000007 00000007 00000006 00000007     ................
   1cea0:	00000004 00000007 00000005 00000002     ................
   1ceb0:	00000007 00000006 00000005 00000007     ................
   1cec0:	00000006 00000007 00000004 00000007     ................
   1ced0:	00000001 00000006 00000007 00000007     ................
   1cee0:	00000006 00000005 00000006 00000007     ................
   1cef0:	00000005 00000006 00000001 00000006     ................
   1cf00:	00000007 00000007 00000006 00000005     ................
   1cf10:	00000006 00000007 00000000 00000007     ................
   1cf20:	00000007 00000006 00000005 00000006     ................
   1cf30:	00000007 00000000 00000007 00000006     ................
   1cf40:	00000005 00000006 00000007 00000001     ................
   1cf50:	00000006 00000007 00000004 00000007     ................
   1cf60:	00000000 00000007 00000006 00000005     ................
   1cf70:	00000002 00000005 00000007 00000006     ................
   1cf80:	00000001 00000006 00000005 00000002     ................
   1cf90:	00000005 00000006 00000001 00000006     ................
   1cfa0:	00000007 00000000 00000007 00000000     ................
   1cfb0:	00000007 00000004 00000003 00000004     ................
   1cfc0:	00000003 00000004 00000003 00000007     ................
   1cfd0:	00000004 00000003 00000004 00000001     ................
   1cfe0:	00000006 00000001 00000002 00000004     ................
   1cff0:	00000003 00000004 00000003 00000004     ................
   1d000:	00000003 00000000 00000007 00000000     ................
   1d010:	00000006 00000001 00000000 00000007     ................
	...
   1d028:	00000007 00000001 00000002 00000004     ................
   1d038:	00000001 00000002 00000001 00000004     ................
   1d048:	00000002 00000001 00000000 00000007     ................
   1d058:	00000000 00000001 00000002 00000001     ................
   1d068:	00000006 00000000 00000001 00000000     ................
   1d078:	00000003 00000000 00000007 00000000     ................
   1d088:	00000000 00000003 00000000 00000001     ................
   1d098:	00000006 00000001 00000000 00000000     ................
   1d0a8:	00000003 00000000 00000000 00000003     ................
   1d0b8:	00000000 00000007 00000000 00000000     ................
   1d0c8:	00000001 00000000 00000003 00000000     ................
   1d0d8:	00000000 00000003 00000005 00000002     ................
	...
   1d0f0:	00000001 00000000 00000002 00000001     ................
   1d100:	00000000 00000003 00000004 00000003     ................
	...
   1d11c:	00000003 00000000 00000005 00000002     ................
   1d12c:	00000001 00000000 00000000 00000003     ................
   1d13c:	00000000 00000007 00000000 00000000     ................
   1d14c:	00000003 00000000 00000007 00000000     ................
   1d15c:	00000000 00000001 00000006 00000001     ................
   1d16c:	00000000 00000003 00000004 00000003     ................
	...
   1d184:	00000007 00000000 00000000 00000007     ................
   1d194:	00000001 00000002 00000005 00000002     ................
   1d1a4:	00000000 00000007 00000000 00000005     ................
   1d1b4:	00000002 00000001 00000006 00000001     ................
   1d1c4:	00000006 00000001 00000006 00000001     ................
   1d1d4:	00000006 00000000 00000005 00000002     ................
   1d1e4:	00000005 00000002 00000005 00000002     ................
   1d1f4:	00000005 00000002 00000005 00000006     ................
   1d204:	00000001 00000007 00000000 00000007     ................
   1d214:	00000007 00000000 00000007 00000006     ................
   1d224:	00000001 00000006 00000005 00000002     ................
   1d234:	00000005 00000006 00000007 00000000     ................
   1d244:	00000007 00000005 00000006 00000003     ................
   1d254:	00000004 00000007 00000004 00000003     ................
   1d264:	00000007 00000004 00000007 00000006     ................
   1d274:	00000001 00000006 00000007 00000007     ................
   1d284:	00000004 00000007 00000004 00000003     ................
   1d294:	00000007 00000004 00000007 00000007     ................
   1d2a4:	00000006 00000005 00000002 00000005     ................
   1d2b4:	00000006 00000007 00000007 00000007     ................
   1d2c4:	00000004 00000007 00000006 00000005     ................
   1d2d4:	00000002 00000005 00000006 00000007     ................
   1d2e4:	00000007 00000006 00000005 00000006     ................
   1d2f4:	00000005 00000002 00000007 00000007     ................
   1d304:	00000004 00000007 00000006 00000007     ................
   1d314:	00000005 00000006 00000000 00000007     ................
   1d324:	00000007 00000006 00000005 00000006     ................
   1d334:	00000005 00000002 00000005 00000007     ................
   1d344:	00000006 00000007 00000000 00000007     ................
   1d354:	00000006 00000005 00000006 00000001     ................
   1d364:	00000007 00000006 00000005 00000002     ................
   1d374:	00000005 00000007 00000006 00000001     ................
   1d384:	00000006 00000005 00000002 00000005     ................
   1d394:	00000007 00000002 00000005 00000006     ................
   1d3a4:	00000001 00000006 00000001 00000006     ................
   1d3b4:	00000007 00000001 00000006 00000001     ................
   1d3c4:	00000006 00000001 00000006 00000007     ................
   1d3d4:	00000000 00000005 00000002 00000005     ................
   1d3e4:	00000002 00000001 00000006 00000001     ................
   1d3f4:	00000006 00000001 00000006 00000000     ................
   1d404:	00000003 00000004 00000003 00000004     ................
   1d414:	00000001 00000002 00000005 00000002     ................
   1d424:	00000001 00000006 00000000 00000001     ................
   1d434:	00000006 00000000 00000001 00000002     ................
   1d444:	00000005 00000000 00000003 00000000     ................
   1d454:	00000007 00000000 00000000 00000001     ................
   1d464:	00000002 00000005 00000002 00000001     ................
   1d474:	00000000 00000003 00000004 00000000     ................
   1d484:	00000003 00000000 00000000 00000001     ................
   1d494:	00000002 00000005 00000002 00000000     ................
   1d4a4:	00000001 00000000 00000000 00000003     ................
   1d4b4:	00000000 00000003 00000004 00000003     ................
	...
   1d4d0:	00000001 00000002 00000001 00000002     ................
   1d4e0:	00000004 00000001 00000000 00000003     ................
	...
   1d4f8:	00000001 00000002 00000001 00000006     ................
   1d508:	00000001 00000000 00000000 00000001     ................
   1d518:	00000002 00000000 00000001 00000006     ................
   1d528:	00000001 00000000 00000003 00000000     ................
   1d538:	00000000 00000003 00000004 00000003     ................
	...
   1d550:	00000003 00000004 00000001 00000002     ................
   1d560:	00000001 00000006 00000000 00000001     ................
   1d570:	00000000 00000006 00000001 00000000     ................
   1d580:	00000003 00000005 00000002 00000001     ................
   1d590:	00000006 00000001 00000000 00000006     ................
   1d5a0:	00000001 00000003 00000004 00000003     ................
   1d5b0:	00000004 00000003 00000000 00000006     ................
   1d5c0:	00000001 00000006 00000001 00000006     ................
   1d5d0:	00000000 00000005 00000002 00000005     ................
   1d5e0:	00000002 00000005 00000002 00000005     ................
   1d5f0:	00000002 00000005 00000002 00000005     ................
   1d600:	00000006 00000001 00000006 00000003     ................
   1d610:	00000004 00000007 00000000 00000007     ................
   1d620:	00000007 00000000 00000006 00000005     ................
   1d630:	00000003 00000006 00000005 00000006     ................
   1d640:	00000001 00000006 00000007 00000005     ................
   1d650:	00000002 00000005 00000006 00000007     ................
   1d660:	00000000 00000007 00000007 00000004     ................
   1d670:	00000007 00000003 00000004 00000007     ................
   1d680:	00000007 00000006 00000005 00000006     ................
   1d690:	00000001 00000006 00000007 00000007     ................
   1d6a0:	00000004 00000007 00000007 00000004     ................
   1d6b0:	00000003 00000004 00000007 00000006     ................
   1d6c0:	00000007 00000005 00000006 00000007     ................
   1d6d0:	00000005 00000002 00000005 00000006     ................
   1d6e0:	00000007 00000007 00000007 00000004     ................
   1d6f0:	00000007 00000006 00000001 00000006     ................
   1d700:	00000007 00000006 00000005 00000007     ................
   1d710:	00000006 00000005 00000006 00000001     ................
   1d720:	00000007 00000006 00000007 00000005     ................
   1d730:	00000006 00000007 00000001 00000006     ................
   1d740:	00000007 00000004 00000006 00000001     ................
   1d750:	00000007 00000006 00000007 00000004     ................
   1d760:	00000003 00000004 00000007 00000006     ................
   1d770:	00000001 00000006 00000005 00000007     ................
   1d780:	00000002 00000005 00000006 00000001     ................
   1d790:	00000006 00000005 00000002 00000007     ................
   1d7a0:	00000004 00000003 00000004 00000003     ................
   1d7b0:	00000004 00000007 00000003 00000004     ................
   1d7c0:	00000003 00000004 00000003 00000006     ................
   1d7d0:	00000005 00000002 00000004 00000001     ................
   1d7e0:	00000006 00000001 00000002 00000005     ................
   1d7f0:	00000002 00000005 00000002 00000005     ................
   1d800:	00000002 00000001 00000006 00000001     ................
   1d810:	00000006 00000001 00000000 00000007     ................
   1d820:	00000000 00000003 00000004 00000003     ................
   1d830:	00000000 00000005 00000002 00000001     ................
   1d840:	00000000 00000006 00000001 00000000     ................
   1d850:	00000003 00000004 00000003 00000000     ................
   1d860:	00000001 00000002 00000004 00000001     ................
   1d870:	00000002 00000001 00000000 00000007     ................
	...
   1d888:	00000001 00000002 00000001 00000000     ................
   1d898:	00000007 00000000 00000001 00000002     ................
   1d8a8:	00000001 00000000 00000000 00000003     ................
   1d8b8:	00000000 00000007 00000000 00000001     ................
   1d8c8:	00000000 00000003 00000000 00000001     ................
   1d8d8:	00000002 00000000 00000007 00000000     ................
   1d8e8:	00000001 00000000 00000000 00000003     ................
	...
   1d900:	00000003 00000000 00000007 00000000     ................
   1d910:	00000000 00000001 00000002 00000000     ................
   1d920:	00000001 00000006 00000001 00000000     ................
   1d930:	00000001 00000002 00000000 00000003     ................
   1d940:	00000004 00000001 00000002 00000001     ................
   1d950:	00000000 00000006 00000001 00000000     ................
   1d960:	00000003 00000005 00000002 00000000     ................
   1d970:	00000001 00000006 00000000 00000001     ................
   1d980:	00000002 00000004 00000001 00000002     ................
   1d990:	00000005 00000002 00000001 00000006     ................
   1d9a0:	00000001 00000000 00000007 00000000     ................
   1d9b0:	00000007 00000000 00000003 00000004     ................
   1d9c0:	00000003 00000004 00000002 00000005     ................
   1d9d0:	00000002 00000005 00000000 00000007     ................
   1d9e0:	00000000 00000007 00000000 00000006     ................
   1d9f0:	00000001 00000006 00000001 00000006     ................
   1da00:	00000005 00000002 00000005 00000003     ................
   1da10:	00000006 00000005 00000002 00000005     ................
   1da20:	00000006 00000003 00000004 00000007     ................
   1da30:	00000000 00000007 00000007 00000004     ................
   1da40:	00000003 00000004 00000007 00000006     ................
   1da50:	00000001 00000006 00000005 00000006     ................
   1da60:	00000003 00000005 00000006 00000007     ................
   1da70:	00000004 00000003 00000007 00000006     ................
   1da80:	00000005 00000006 00000007 00000004     ................
   1da90:	00000003 00000004 00000007 00000007     ................
   1daa0:	00000006 00000005 00000006 00000005     ................
   1dab0:	00000003 00000006 00000005 00000006     ................
   1dac0:	00000007 00000007 00000004 00000007     ................
   1dad0:	00000007 00000000 00000006 00000007     ................
   1dae0:	00000005 00000006 00000007 00000007     ................
   1daf0:	00000004 00000007 00000004 00000003     ................
   1db00:	00000006 00000005 00000007 00000006     ................
   1db10:	00000007 00000005 00000006 00000001     ................
   1db20:	00000006 00000007 00000006 00000005     ................
   1db30:	00000007 00000006 00000001 00000006     ................
   1db40:	00000004 00000007 00000007 00000000     ................
   1db50:	00000007 00000007 00000004 00000007     ................
   1db60:	00000002 00000005 00000006 00000007     ................
   1db70:	00000000 00000007 00000004 00000007     ................
   1db80:	00000001 00000006 00000007 00000000     ................
   1db90:	00000007 00000005 00000002 00000007     ................
   1dba0:	00000004 00000003 00000004 00000003     ................
   1dbb0:	00000004 00000007 00000003 00000004     ................
   1dbc0:	00000002 00000005 00000002 00000007     ................
   1dbd0:	00000004 00000003 00000000 00001b41     ............A...
   1dbe0:	73697200 01007663 00000011 72050404     .riscv.........r
   1dbf0:	65323376 00397031                       v32e1p9.
